
a.out:     file format elf64-x86-64


Disassembly of section .text:

0000000000600e20 <_start>:
  600e20:	f3 0f 1e fa          	endbr64
  600e24:	31 ed                	xor    %ebp,%ebp
  600e26:	49 89 d1             	mov    %rdx,%r9
  600e29:	5e                   	pop    %rsi
  600e2a:	48 89 e2             	mov    %rsp,%rdx
  600e2d:	48 83 e4 f0          	and    $0xfffffffffffffff0,%rsp
  600e31:	50                   	push   %rax
  600e32:	54                   	push   %rsp
  600e33:	45 31 c0             	xor    %r8d,%r8d
  600e36:	31 c9                	xor    %ecx,%ecx
  600e38:	48 8b 3d 21 4b 20 00 	mov    0x204b21(%rip),%rdi        # 805960 <main+0x202ce0>
  600e3f:	ff 15 23 4b 20 00    	call   *0x204b23(%rip)        # 805968 <__libc_start_main@GLIBC_2.34>
  600e45:	f4                   	hlt
  600e46:	66 2e 0f 1f 84 00 00 	cs nopw 0x0(%rax,%rax,1)
  600e4d:	00 00 00 

0000000000600e50 <_dl_relocate_static_pie>:
  600e50:	f3 0f 1e fa          	endbr64
  600e54:	c3                   	ret

0000000000600e55 <f32x2_set1>:
  600e55:	55                   	push   %rbp
  600e56:	48 89 e5             	mov    %rsp,%rbp
  600e59:	48 81 ec 10 00 00 00 	sub    $0x10,%rsp
  600e60:	66 0f d6 45 f8       	movq   %xmm0,-0x8(%rbp)
  600e65:	48 b8 08 00 00 00 00 	movabs $0x8,%rax
  600e6c:	00 00 00 
  600e6f:	49 89 c2             	mov    %rax,%r10
  600e72:	b8 00 00 00 00       	mov    $0x0,%eax
  600e77:	48 89 c6             	mov    %rax,%rsi
  600e7a:	48 8d 45 f0          	lea    -0x10(%rbp),%rax
  600e7e:	48 89 c7             	mov    %rax,%rdi
  600e81:	4c 89 d2             	mov    %r10,%rdx
  600e84:	b8 00 00 00 00       	mov    $0x0,%eax
  600e89:	e8 62 45 00 00       	call   6053f0 <memset@plt>
  600e8e:	66 0f 6e 45 f8       	movd   -0x8(%rbp),%xmm0
  600e93:	66 0f 7e 45 f0       	movd   %xmm0,-0x10(%rbp)
  600e98:	66 0f 6e 45 f8       	movd   -0x8(%rbp),%xmm0
  600e9d:	66 0f 7e 45 f4       	movd   %xmm0,-0xc(%rbp)
  600ea2:	48 8b 45 f0          	mov    -0x10(%rbp),%rax
  600ea6:	c9                   	leave
  600ea7:	c3                   	ret

0000000000600ea8 <f32x2_set>:
  600ea8:	55                   	push   %rbp
  600ea9:	48 89 e5             	mov    %rsp,%rbp
  600eac:	48 81 ec 20 00 00 00 	sub    $0x20,%rsp
  600eb3:	66 0f d6 45 f8       	movq   %xmm0,-0x8(%rbp)
  600eb8:	66 0f d6 4d f0       	movq   %xmm1,-0x10(%rbp)
  600ebd:	48 b8 08 00 00 00 00 	movabs $0x8,%rax
  600ec4:	00 00 00 
  600ec7:	49 89 c2             	mov    %rax,%r10
  600eca:	b8 00 00 00 00       	mov    $0x0,%eax
  600ecf:	48 89 c6             	mov    %rax,%rsi
  600ed2:	48 8d 45 e8          	lea    -0x18(%rbp),%rax
  600ed6:	48 89 c7             	mov    %rax,%rdi
  600ed9:	4c 89 d2             	mov    %r10,%rdx
  600edc:	b8 00 00 00 00       	mov    $0x0,%eax
  600ee1:	e8 0a 45 00 00       	call   6053f0 <memset@plt>
  600ee6:	66 0f 6e 45 f8       	movd   -0x8(%rbp),%xmm0
  600eeb:	66 0f 7e 45 e8       	movd   %xmm0,-0x18(%rbp)
  600ef0:	66 0f 6e 45 f0       	movd   -0x10(%rbp),%xmm0
  600ef5:	66 0f 7e 45 ec       	movd   %xmm0,-0x14(%rbp)
  600efa:	48 8b 45 e8          	mov    -0x18(%rbp),%rax
  600efe:	c9                   	leave
  600eff:	c3                   	ret

0000000000600f00 <f32x2_load>:
  600f00:	55                   	push   %rbp
  600f01:	48 89 e5             	mov    %rsp,%rbp
  600f04:	48 81 ec 10 00 00 00 	sub    $0x10,%rsp
  600f0b:	48 89 7d f8          	mov    %rdi,-0x8(%rbp)
  600f0f:	48 b8 08 00 00 00 00 	movabs $0x8,%rax
  600f16:	00 00 00 
  600f19:	49 89 c2             	mov    %rax,%r10
  600f1c:	48 8b 45 f8          	mov    -0x8(%rbp),%rax
  600f20:	48 89 c6             	mov    %rax,%rsi
  600f23:	48 8d 45 f0          	lea    -0x10(%rbp),%rax
  600f27:	48 89 c7             	mov    %rax,%rdi
  600f2a:	4c 89 d2             	mov    %r10,%rdx
  600f2d:	e8 ce 44 00 00       	call   605400 <memcpy@plt>
  600f32:	48 8b 45 f0          	mov    -0x10(%rbp),%rax
  600f36:	c9                   	leave
  600f37:	c3                   	ret

0000000000600f38 <f32x2_scatter>:
  600f38:	55                   	push   %rbp
  600f39:	48 89 e5             	mov    %rsp,%rbp
  600f3c:	48 81 ec 20 00 00 00 	sub    $0x20,%rsp
  600f43:	48 89 7d f8          	mov    %rdi,-0x8(%rbp)
  600f47:	48 89 75 f0          	mov    %rsi,-0x10(%rbp)
  600f4b:	48 89 55 e8          	mov    %rdx,-0x18(%rbp)
  600f4f:	48 8b 45 f8          	mov    -0x8(%rbp),%rax
  600f53:	66 0f 6e 45 e8       	movd   -0x18(%rbp),%xmm0
  600f58:	66 0f 7e 00          	movd   %xmm0,(%rax)
  600f5c:	48 8b 45 f0          	mov    -0x10(%rbp),%rax
  600f60:	66 0f 6e 45 ec       	movd   -0x14(%rbp),%xmm0
  600f65:	66 0f 7e 00          	movd   %xmm0,(%rax)
  600f69:	c9                   	leave
  600f6a:	c3                   	ret

0000000000600f6b <f32x2_add>:
  600f6b:	55                   	push   %rbp
  600f6c:	48 89 e5             	mov    %rsp,%rbp
  600f6f:	48 81 ec 20 00 00 00 	sub    $0x20,%rsp
  600f76:	48 89 7d f8          	mov    %rdi,-0x8(%rbp)
  600f7a:	48 89 75 f0          	mov    %rsi,-0x10(%rbp)
  600f7e:	66 0f 6e 45 f8       	movd   -0x8(%rbp),%xmm0
  600f83:	f3 0f 58 45 f0       	addss  -0x10(%rbp),%xmm0
  600f88:	66 0f 7e 45 e8       	movd   %xmm0,-0x18(%rbp)
  600f8d:	66 0f 6e 45 fc       	movd   -0x4(%rbp),%xmm0
  600f92:	f3 0f 58 45 f4       	addss  -0xc(%rbp),%xmm0
  600f97:	66 0f 7e 45 ec       	movd   %xmm0,-0x14(%rbp)
  600f9c:	48 8b 45 e8          	mov    -0x18(%rbp),%rax
  600fa0:	c9                   	leave
  600fa1:	c3                   	ret

0000000000600fa2 <f32x2_add1>:
  600fa2:	55                   	push   %rbp
  600fa3:	48 89 e5             	mov    %rsp,%rbp
  600fa6:	48 81 ec 20 00 00 00 	sub    $0x20,%rsp
  600fad:	48 89 7d f8          	mov    %rdi,-0x8(%rbp)
  600fb1:	66 0f d6 45 f0       	movq   %xmm0,-0x10(%rbp)
  600fb6:	66 0f 6e 45 f8       	movd   -0x8(%rbp),%xmm0
  600fbb:	f3 0f 58 45 f0       	addss  -0x10(%rbp),%xmm0
  600fc0:	66 0f 7e 45 e8       	movd   %xmm0,-0x18(%rbp)
  600fc5:	66 0f 6e 45 fc       	movd   -0x4(%rbp),%xmm0
  600fca:	f3 0f 58 45 f0       	addss  -0x10(%rbp),%xmm0
  600fcf:	66 0f 7e 45 ec       	movd   %xmm0,-0x14(%rbp)
  600fd4:	48 8b 45 e8          	mov    -0x18(%rbp),%rax
  600fd8:	c9                   	leave
  600fd9:	c3                   	ret

0000000000600fda <f32x2_sub>:
  600fda:	55                   	push   %rbp
  600fdb:	48 89 e5             	mov    %rsp,%rbp
  600fde:	48 81 ec 20 00 00 00 	sub    $0x20,%rsp
  600fe5:	48 89 7d f8          	mov    %rdi,-0x8(%rbp)
  600fe9:	48 89 75 f0          	mov    %rsi,-0x10(%rbp)
  600fed:	66 0f 6e 45 f8       	movd   -0x8(%rbp),%xmm0
  600ff2:	f3 0f 5c 45 f0       	subss  -0x10(%rbp),%xmm0
  600ff7:	66 0f 7e 45 e8       	movd   %xmm0,-0x18(%rbp)
  600ffc:	66 0f 6e 45 fc       	movd   -0x4(%rbp),%xmm0
  601001:	f3 0f 5c 45 f4       	subss  -0xc(%rbp),%xmm0
  601006:	66 0f 7e 45 ec       	movd   %xmm0,-0x14(%rbp)
  60100b:	48 8b 45 e8          	mov    -0x18(%rbp),%rax
  60100f:	c9                   	leave
  601010:	c3                   	ret

0000000000601011 <f32x2_sub1>:
  601011:	55                   	push   %rbp
  601012:	48 89 e5             	mov    %rsp,%rbp
  601015:	48 81 ec 20 00 00 00 	sub    $0x20,%rsp
  60101c:	48 89 7d f8          	mov    %rdi,-0x8(%rbp)
  601020:	66 0f d6 45 f0       	movq   %xmm0,-0x10(%rbp)
  601025:	66 0f 6e 45 f8       	movd   -0x8(%rbp),%xmm0
  60102a:	f3 0f 5c 45 f0       	subss  -0x10(%rbp),%xmm0
  60102f:	66 0f 7e 45 e8       	movd   %xmm0,-0x18(%rbp)
  601034:	66 0f 6e 45 fc       	movd   -0x4(%rbp),%xmm0
  601039:	f3 0f 5c 45 f0       	subss  -0x10(%rbp),%xmm0
  60103e:	66 0f 7e 45 ec       	movd   %xmm0,-0x14(%rbp)
  601043:	48 8b 45 e8          	mov    -0x18(%rbp),%rax
  601047:	c9                   	leave
  601048:	c3                   	ret

0000000000601049 <f32x2_1sub>:
  601049:	55                   	push   %rbp
  60104a:	48 89 e5             	mov    %rsp,%rbp
  60104d:	48 81 ec 20 00 00 00 	sub    $0x20,%rsp
  601054:	66 0f d6 45 f8       	movq   %xmm0,-0x8(%rbp)
  601059:	48 89 7d f0          	mov    %rdi,-0x10(%rbp)
  60105d:	66 0f 6e 45 f8       	movd   -0x8(%rbp),%xmm0
  601062:	f3 0f 5c 45 f0       	subss  -0x10(%rbp),%xmm0
  601067:	66 0f 7e 45 e8       	movd   %xmm0,-0x18(%rbp)
  60106c:	66 0f 6e 45 f8       	movd   -0x8(%rbp),%xmm0
  601071:	f3 0f 5c 45 f4       	subss  -0xc(%rbp),%xmm0
  601076:	66 0f 7e 45 ec       	movd   %xmm0,-0x14(%rbp)
  60107b:	48 8b 45 e8          	mov    -0x18(%rbp),%rax
  60107f:	c9                   	leave
  601080:	c3                   	ret

0000000000601081 <f32x2_mul>:
  601081:	55                   	push   %rbp
  601082:	48 89 e5             	mov    %rsp,%rbp
  601085:	48 81 ec 20 00 00 00 	sub    $0x20,%rsp
  60108c:	48 89 7d f8          	mov    %rdi,-0x8(%rbp)
  601090:	48 89 75 f0          	mov    %rsi,-0x10(%rbp)
  601094:	66 0f 6e 45 f8       	movd   -0x8(%rbp),%xmm0
  601099:	f3 0f 59 45 f0       	mulss  -0x10(%rbp),%xmm0
  60109e:	66 0f 7e 45 e8       	movd   %xmm0,-0x18(%rbp)
  6010a3:	66 0f 6e 45 fc       	movd   -0x4(%rbp),%xmm0
  6010a8:	f3 0f 59 45 f4       	mulss  -0xc(%rbp),%xmm0
  6010ad:	66 0f 7e 45 ec       	movd   %xmm0,-0x14(%rbp)
  6010b2:	48 8b 45 e8          	mov    -0x18(%rbp),%rax
  6010b6:	c9                   	leave
  6010b7:	c3                   	ret

00000000006010b8 <f32x2_mul1>:
  6010b8:	55                   	push   %rbp
  6010b9:	48 89 e5             	mov    %rsp,%rbp
  6010bc:	48 81 ec 20 00 00 00 	sub    $0x20,%rsp
  6010c3:	48 89 7d f8          	mov    %rdi,-0x8(%rbp)
  6010c7:	66 0f d6 45 f0       	movq   %xmm0,-0x10(%rbp)
  6010cc:	66 0f 6e 45 f8       	movd   -0x8(%rbp),%xmm0
  6010d1:	f3 0f 59 45 f0       	mulss  -0x10(%rbp),%xmm0
  6010d6:	66 0f 7e 45 e8       	movd   %xmm0,-0x18(%rbp)
  6010db:	66 0f 6e 45 fc       	movd   -0x4(%rbp),%xmm0
  6010e0:	f3 0f 59 45 f0       	mulss  -0x10(%rbp),%xmm0
  6010e5:	66 0f 7e 45 ec       	movd   %xmm0,-0x14(%rbp)
  6010ea:	48 8b 45 e8          	mov    -0x18(%rbp),%rax
  6010ee:	c9                   	leave
  6010ef:	c3                   	ret

00000000006010f0 <f32x2_div>:
  6010f0:	55                   	push   %rbp
  6010f1:	48 89 e5             	mov    %rsp,%rbp
  6010f4:	48 81 ec 20 00 00 00 	sub    $0x20,%rsp
  6010fb:	48 89 7d f8          	mov    %rdi,-0x8(%rbp)
  6010ff:	48 89 75 f0          	mov    %rsi,-0x10(%rbp)
  601103:	66 0f 6e 45 f8       	movd   -0x8(%rbp),%xmm0
  601108:	f3 0f 5e 45 f0       	divss  -0x10(%rbp),%xmm0
  60110d:	66 0f 7e 45 e8       	movd   %xmm0,-0x18(%rbp)
  601112:	66 0f 6e 45 fc       	movd   -0x4(%rbp),%xmm0
  601117:	f3 0f 5e 45 f4       	divss  -0xc(%rbp),%xmm0
  60111c:	66 0f 7e 45 ec       	movd   %xmm0,-0x14(%rbp)
  601121:	48 8b 45 e8          	mov    -0x18(%rbp),%rax
  601125:	c9                   	leave
  601126:	c3                   	ret

0000000000601127 <f32x2_div1>:
  601127:	55                   	push   %rbp
  601128:	48 89 e5             	mov    %rsp,%rbp
  60112b:	48 81 ec 20 00 00 00 	sub    $0x20,%rsp
  601132:	48 89 7d f8          	mov    %rdi,-0x8(%rbp)
  601136:	66 0f d6 45 f0       	movq   %xmm0,-0x10(%rbp)
  60113b:	66 0f 6e 45 f8       	movd   -0x8(%rbp),%xmm0
  601140:	f3 0f 5e 45 f0       	divss  -0x10(%rbp),%xmm0
  601145:	66 0f 7e 45 e8       	movd   %xmm0,-0x18(%rbp)
  60114a:	66 0f 6e 45 fc       	movd   -0x4(%rbp),%xmm0
  60114f:	f3 0f 5e 45 f0       	divss  -0x10(%rbp),%xmm0
  601154:	66 0f 7e 45 ec       	movd   %xmm0,-0x14(%rbp)
  601159:	48 8b 45 e8          	mov    -0x18(%rbp),%rax
  60115d:	c9                   	leave
  60115e:	c3                   	ret

000000000060115f <f32x2_1div>:
  60115f:	55                   	push   %rbp
  601160:	48 89 e5             	mov    %rsp,%rbp
  601163:	48 81 ec 20 00 00 00 	sub    $0x20,%rsp
  60116a:	66 0f d6 45 f8       	movq   %xmm0,-0x8(%rbp)
  60116f:	48 89 7d f0          	mov    %rdi,-0x10(%rbp)
  601173:	66 0f 6e 45 f8       	movd   -0x8(%rbp),%xmm0
  601178:	f3 0f 5e 45 f0       	divss  -0x10(%rbp),%xmm0
  60117d:	66 0f 7e 45 e8       	movd   %xmm0,-0x18(%rbp)
  601182:	66 0f 6e 45 f8       	movd   -0x8(%rbp),%xmm0
  601187:	f3 0f 5e 45 f4       	divss  -0xc(%rbp),%xmm0
  60118c:	66 0f 7e 45 ec       	movd   %xmm0,-0x14(%rbp)
  601191:	48 8b 45 e8          	mov    -0x18(%rbp),%rax
  601195:	c9                   	leave
  601196:	c3                   	ret

0000000000601197 <f32x2_sqrt>:
  601197:	55                   	push   %rbp
  601198:	48 89 e5             	mov    %rsp,%rbp
  60119b:	48 81 ec 10 00 00 00 	sub    $0x10,%rsp
  6011a2:	48 89 7d f8          	mov    %rdi,-0x8(%rbp)
  6011a6:	66 0f 6e 45 f8       	movd   -0x8(%rbp),%xmm0
  6011ab:	e8 60 42 00 00       	call   605410 <sqrtf@plt>
  6011b0:	66 0f 7e 45 f0       	movd   %xmm0,-0x10(%rbp)
  6011b5:	66 0f 6e 45 fc       	movd   -0x4(%rbp),%xmm0
  6011ba:	e8 51 42 00 00       	call   605410 <sqrtf@plt>
  6011bf:	66 0f 7e 45 f4       	movd   %xmm0,-0xc(%rbp)
  6011c4:	48 8b 45 f0          	mov    -0x10(%rbp),%rax
  6011c8:	c9                   	leave
  6011c9:	c3                   	ret

00000000006011ca <f32x2_rsqrt>:
  6011ca:	55                   	push   %rbp
  6011cb:	48 89 e5             	mov    %rsp,%rbp
  6011ce:	48 81 ec 10 00 00 00 	sub    $0x10,%rsp
  6011d5:	48 89 7d f8          	mov    %rdi,-0x8(%rbp)
  6011d9:	66 0f 6e 45 f8       	movd   -0x8(%rbp),%xmm0
  6011de:	e8 2d 42 00 00       	call   605410 <sqrtf@plt>
  6011e3:	66 0f 6e 0d b5 43 20 	movd   0x2043b5(%rip),%xmm1        # 8055a0 <L.80>
  6011ea:	00 
  6011eb:	f3 0f 5e c8          	divss  %xmm0,%xmm1
  6011ef:	66 0f 7e 4d f0       	movd   %xmm1,-0x10(%rbp)
  6011f4:	66 0f 6e 45 fc       	movd   -0x4(%rbp),%xmm0
  6011f9:	e8 12 42 00 00       	call   605410 <sqrtf@plt>
  6011fe:	66 0f 6e 0d 9e 43 20 	movd   0x20439e(%rip),%xmm1        # 8055a4 <L.81>
  601205:	00 
  601206:	f3 0f 5e c8          	divss  %xmm0,%xmm1
  60120a:	66 0f 7e 4d f4       	movd   %xmm1,-0xc(%rbp)
  60120f:	48 8b 45 f0          	mov    -0x10(%rbp),%rax
  601213:	c9                   	leave
  601214:	c3                   	ret

0000000000601215 <f32x2_abs>:
  601215:	55                   	push   %rbp
  601216:	48 89 e5             	mov    %rsp,%rbp
  601219:	48 81 ec 10 00 00 00 	sub    $0x10,%rsp
  601220:	48 89 7d f8          	mov    %rdi,-0x8(%rbp)
  601224:	66 0f 6e 45 f8       	movd   -0x8(%rbp),%xmm0
  601229:	e8 f2 41 00 00       	call   605420 <fabsf@plt>
  60122e:	66 0f 7e 45 f0       	movd   %xmm0,-0x10(%rbp)
  601233:	66 0f 6e 45 fc       	movd   -0x4(%rbp),%xmm0
  601238:	e8 e3 41 00 00       	call   605420 <fabsf@plt>
  60123d:	66 0f 7e 45 f4       	movd   %xmm0,-0xc(%rbp)
  601242:	48 8b 45 f0          	mov    -0x10(%rbp),%rax
  601246:	c9                   	leave
  601247:	c3                   	ret

0000000000601248 <f32x2_length_squared>:
  601248:	55                   	push   %rbp
  601249:	48 89 e5             	mov    %rsp,%rbp
  60124c:	48 81 ec 10 00 00 00 	sub    $0x10,%rsp
  601253:	48 89 7d f8          	mov    %rdi,-0x8(%rbp)
  601257:	66 0f 6e 45 f8       	movd   -0x8(%rbp),%xmm0
  60125c:	f3 0f 59 45 f8       	mulss  -0x8(%rbp),%xmm0
  601261:	66 0f 6e 4d fc       	movd   -0x4(%rbp),%xmm1
  601266:	f3 0f 59 4d fc       	mulss  -0x4(%rbp),%xmm1
  60126b:	f3 0f 58 c1          	addss  %xmm1,%xmm0
  60126f:	66 0f 7e 45 f4       	movd   %xmm0,-0xc(%rbp)
  601274:	66 0f 6e 45 f4       	movd   -0xc(%rbp),%xmm0
  601279:	c9                   	leave
  60127a:	c3                   	ret

000000000060127b <f32x2_length>:
  60127b:	55                   	push   %rbp
  60127c:	48 89 e5             	mov    %rsp,%rbp
  60127f:	48 81 ec 10 00 00 00 	sub    $0x10,%rsp
  601286:	48 89 7d f8          	mov    %rdi,-0x8(%rbp)
  60128a:	48 8b 45 f8          	mov    -0x8(%rbp),%rax
  60128e:	48 89 c7             	mov    %rax,%rdi
  601291:	e8 b2 ff ff ff       	call   601248 <f32x2_length_squared>
  601296:	66 0f 7e 45 f0       	movd   %xmm0,-0x10(%rbp)
  60129b:	66 0f 6e 45 f0       	movd   -0x10(%rbp),%xmm0
  6012a0:	e8 6b 41 00 00       	call   605410 <sqrtf@plt>
  6012a5:	66 0f 7e 45 f4       	movd   %xmm0,-0xc(%rbp)
  6012aa:	66 0f 6e 45 f4       	movd   -0xc(%rbp),%xmm0
  6012af:	c9                   	leave
  6012b0:	c3                   	ret

00000000006012b1 <f32x2_unit>:
  6012b1:	55                   	push   %rbp
  6012b2:	48 89 e5             	mov    %rsp,%rbp
  6012b5:	48 81 ec 30 00 00 00 	sub    $0x30,%rsp
  6012bc:	48 89 7d f8          	mov    %rdi,-0x8(%rbp)
  6012c0:	48 8b 45 f8          	mov    -0x8(%rbp),%rax
  6012c4:	48 89 c7             	mov    %rax,%rdi
  6012c7:	e8 af ff ff ff       	call   60127b <f32x2_length>
  6012cc:	66 0f 7e 45 ec       	movd   %xmm0,-0x14(%rbp)
  6012d1:	66 0f 6e 45 ec       	movd   -0x14(%rbp),%xmm0
  6012d6:	e8 7a fb ff ff       	call   600e55 <f32x2_set1>
  6012db:	48 89 45 e4          	mov    %rax,-0x1c(%rbp)
  6012df:	48 8d 75 e4          	lea    -0x1c(%rbp),%rsi
  6012e3:	48 8d 7d f0          	lea    -0x10(%rbp),%rdi
  6012e7:	48 a5                	movsq  (%rsi),(%rdi)
  6012e9:	48 8b 45 f0          	mov    -0x10(%rbp),%rax
  6012ed:	48 89 c6             	mov    %rax,%rsi
  6012f0:	48 8b 45 f8          	mov    -0x8(%rbp),%rax
  6012f4:	48 89 c7             	mov    %rax,%rdi
  6012f7:	e8 f4 fd ff ff       	call   6010f0 <f32x2_div>
  6012fc:	48 89 45 d4          	mov    %rax,-0x2c(%rbp)
  601300:	48 8d 75 d4          	lea    -0x2c(%rbp),%rsi
  601304:	48 8d 7d dc          	lea    -0x24(%rbp),%rdi
  601308:	48 a5                	movsq  (%rsi),(%rdi)
  60130a:	48 8b 45 dc          	mov    -0x24(%rbp),%rax
  60130e:	c9                   	leave
  60130f:	c3                   	ret

0000000000601310 <f32x2_distance>:
  601310:	55                   	push   %rbp
  601311:	48 89 e5             	mov    %rsp,%rbp
  601314:	48 81 ec 30 00 00 00 	sub    $0x30,%rsp
  60131b:	48 89 7d f8          	mov    %rdi,-0x8(%rbp)
  60131f:	48 89 75 f0          	mov    %rsi,-0x10(%rbp)
  601323:	48 8b 45 f8          	mov    -0x8(%rbp),%rax
  601327:	48 89 c6             	mov    %rax,%rsi
  60132a:	48 8b 45 f0          	mov    -0x10(%rbp),%rax
  60132e:	48 89 c7             	mov    %rax,%rdi
  601331:	e8 a4 fc ff ff       	call   600fda <f32x2_sub>
  601336:	48 89 45 e0          	mov    %rax,-0x20(%rbp)
  60133a:	48 8d 75 e0          	lea    -0x20(%rbp),%rsi
  60133e:	48 8d 7d e8          	lea    -0x18(%rbp),%rdi
  601342:	48 a5                	movsq  (%rsi),(%rdi)
  601344:	48 8b 45 e8          	mov    -0x18(%rbp),%rax
  601348:	48 89 c7             	mov    %rax,%rdi
  60134b:	e8 2b ff ff ff       	call   60127b <f32x2_length>
  601350:	66 0f 7e 45 dc       	movd   %xmm0,-0x24(%rbp)
  601355:	66 0f 6e 45 dc       	movd   -0x24(%rbp),%xmm0
  60135a:	c9                   	leave
  60135b:	c3                   	ret

000000000060135c <f32_lerp>:
  60135c:	55                   	push   %rbp
  60135d:	48 89 e5             	mov    %rsp,%rbp
  601360:	48 81 ec 20 00 00 00 	sub    $0x20,%rsp
  601367:	66 0f d6 45 f8       	movq   %xmm0,-0x8(%rbp)
  60136c:	66 0f d6 4d f0       	movq   %xmm1,-0x10(%rbp)
  601371:	66 0f d6 55 e8       	movq   %xmm2,-0x18(%rbp)
  601376:	66 0f 6e 45 f0       	movd   -0x10(%rbp),%xmm0
  60137b:	f3 0f 5c 45 f8       	subss  -0x8(%rbp),%xmm0
  601380:	f3 0f 59 45 e8       	mulss  -0x18(%rbp),%xmm0
  601385:	f3 0f 58 45 f8       	addss  -0x8(%rbp),%xmm0
  60138a:	c9                   	leave
  60138b:	c3                   	ret

000000000060138c <f32x2_lerp>:
  60138c:	55                   	push   %rbp
  60138d:	48 89 e5             	mov    %rsp,%rbp
  601390:	48 81 ec 20 00 00 00 	sub    $0x20,%rsp
  601397:	48 89 7d f8          	mov    %rdi,-0x8(%rbp)
  60139b:	48 89 75 f0          	mov    %rsi,-0x10(%rbp)
  60139f:	66 0f d6 45 e8       	movq   %xmm0,-0x18(%rbp)
  6013a4:	66 0f 6e 55 e8       	movd   -0x18(%rbp),%xmm2
  6013a9:	66 0f 6e 4d f0       	movd   -0x10(%rbp),%xmm1
  6013ae:	66 0f 6e 45 f8       	movd   -0x8(%rbp),%xmm0
  6013b3:	e8 a4 ff ff ff       	call   60135c <f32_lerp>
  6013b8:	66 0f 7e 45 e0       	movd   %xmm0,-0x20(%rbp)
  6013bd:	66 0f 6e 55 e8       	movd   -0x18(%rbp),%xmm2
  6013c2:	66 0f 6e 4d f4       	movd   -0xc(%rbp),%xmm1
  6013c7:	66 0f 6e 45 fc       	movd   -0x4(%rbp),%xmm0
  6013cc:	e8 8b ff ff ff       	call   60135c <f32_lerp>
  6013d1:	66 0f 7e 45 e4       	movd   %xmm0,-0x1c(%rbp)
  6013d6:	48 8b 45 e0          	mov    -0x20(%rbp),%rax
  6013da:	c9                   	leave
  6013db:	c3                   	ret

00000000006013dc <f32x2_angle>:
  6013dc:	55                   	push   %rbp
  6013dd:	48 89 e5             	mov    %rsp,%rbp
  6013e0:	48 81 ec 10 00 00 00 	sub    $0x10,%rsp
  6013e7:	48 89 7d f8          	mov    %rdi,-0x8(%rbp)
  6013eb:	66 0f 6e 4d f8       	movd   -0x8(%rbp),%xmm1
  6013f0:	66 0f 6e 45 fc       	movd   -0x4(%rbp),%xmm0
  6013f5:	e8 36 40 00 00       	call   605430 <atan2f@plt>
  6013fa:	66 0f 7e 45 f4       	movd   %xmm0,-0xc(%rbp)
  6013ff:	66 0f 6e 45 f4       	movd   -0xc(%rbp),%xmm0
  601404:	c9                   	leave
  601405:	c3                   	ret

0000000000601406 <f32x2_trunc>:
  601406:	55                   	push   %rbp
  601407:	48 89 e5             	mov    %rsp,%rbp
  60140a:	48 81 ec 30 00 00 00 	sub    $0x30,%rsp
  601411:	48 89 7d f8          	mov    %rdi,-0x8(%rbp)
  601415:	66 0f d6 45 f0       	movq   %xmm0,-0x10(%rbp)
  60141a:	48 8b 45 f8          	mov    -0x8(%rbp),%rax
  60141e:	48 89 c7             	mov    %rax,%rdi
  601421:	e8 22 fe ff ff       	call   601248 <f32x2_length_squared>
  601426:	66 0f 7e 45 ec       	movd   %xmm0,-0x14(%rbp)
  60142b:	66 0f 6e 45 f0       	movd   -0x10(%rbp),%xmm0
  601430:	f3 0f 59 45 f0       	mulss  -0x10(%rbp),%xmm0
  601435:	0f 2f 45 ec          	comiss -0x14(%rbp),%xmm0
  601439:	0f 8a 0f 00 00 00    	jp     60144e <f32x2_trunc+0x48>
  60143f:	0f 82 09 00 00 00    	jb     60144e <f32x2_trunc+0x48>
  601445:	48 8b 45 f8          	mov    -0x8(%rbp),%rax
  601449:	e9 41 00 00 00       	jmp    60148f <f32x2_trunc+0x89>
  60144e:	66 0f 6e 45 ec       	movd   -0x14(%rbp),%xmm0
  601453:	e8 b8 3f 00 00       	call   605410 <sqrtf@plt>
  601458:	66 0f 7e 45 e8       	movd   %xmm0,-0x18(%rbp)
  60145d:	66 0f 6e 45 f0       	movd   -0x10(%rbp),%xmm0
  601462:	f3 0f 5e 45 e8       	divss  -0x18(%rbp),%xmm0
  601467:	66 0f 7e 45 e4       	movd   %xmm0,-0x1c(%rbp)
  60146c:	66 0f 6e 45 e4       	movd   -0x1c(%rbp),%xmm0
  601471:	48 8b 45 f8          	mov    -0x8(%rbp),%rax
  601475:	48 89 c7             	mov    %rax,%rdi
  601478:	e8 3b fc ff ff       	call   6010b8 <f32x2_mul1>
  60147d:	48 89 45 d4          	mov    %rax,-0x2c(%rbp)
  601481:	48 8d 75 d4          	lea    -0x2c(%rbp),%rsi
  601485:	48 8d 7d dc          	lea    -0x24(%rbp),%rdi
  601489:	48 a5                	movsq  (%rsi),(%rdi)
  60148b:	48 8b 45 dc          	mov    -0x24(%rbp),%rax
  60148f:	c9                   	leave
  601490:	c3                   	ret

0000000000601491 <f32x2_dot>:
  601491:	55                   	push   %rbp
  601492:	48 89 e5             	mov    %rsp,%rbp
  601495:	48 81 ec 20 00 00 00 	sub    $0x20,%rsp
  60149c:	48 89 7d f8          	mov    %rdi,-0x8(%rbp)
  6014a0:	48 89 75 f0          	mov    %rsi,-0x10(%rbp)
  6014a4:	66 0f 6e 45 f8       	movd   -0x8(%rbp),%xmm0
  6014a9:	f3 0f 59 45 f0       	mulss  -0x10(%rbp),%xmm0
  6014ae:	66 0f 6e 4d fc       	movd   -0x4(%rbp),%xmm1
  6014b3:	f3 0f 59 4d f4       	mulss  -0xc(%rbp),%xmm1
  6014b8:	f3 0f 58 c1          	addss  %xmm1,%xmm0
  6014bc:	66 0f 7e 45 ec       	movd   %xmm0,-0x14(%rbp)
  6014c1:	66 0f 6e 45 ec       	movd   -0x14(%rbp),%xmm0
  6014c6:	c9                   	leave
  6014c7:	c3                   	ret

00000000006014c8 <f32x2_cross>:
  6014c8:	55                   	push   %rbp
  6014c9:	48 89 e5             	mov    %rsp,%rbp
  6014cc:	48 81 ec 20 00 00 00 	sub    $0x20,%rsp
  6014d3:	48 89 7d f8          	mov    %rdi,-0x8(%rbp)
  6014d7:	48 89 75 f0          	mov    %rsi,-0x10(%rbp)
  6014db:	66 0f 6e 45 f8       	movd   -0x8(%rbp),%xmm0
  6014e0:	f3 0f 59 45 f4       	mulss  -0xc(%rbp),%xmm0
  6014e5:	66 0f 6e 4d fc       	movd   -0x4(%rbp),%xmm1
  6014ea:	f3 0f 59 4d f0       	mulss  -0x10(%rbp),%xmm1
  6014ef:	f3 0f 5c c1          	subss  %xmm1,%xmm0
  6014f3:	66 0f 7e 45 ec       	movd   %xmm0,-0x14(%rbp)
  6014f8:	66 0f 6e 45 ec       	movd   -0x14(%rbp),%xmm0
  6014fd:	c9                   	leave
  6014fe:	c3                   	ret

00000000006014ff <f32x2_perp_cw>:
  6014ff:	55                   	push   %rbp
  601500:	48 89 e5             	mov    %rsp,%rbp
  601503:	48 81 ec 10 00 00 00 	sub    $0x10,%rsp
  60150a:	48 89 7d f8          	mov    %rdi,-0x8(%rbp)
  60150e:	66 0f 6e 45 fc       	movd   -0x4(%rbp),%xmm0
  601513:	48 8b 05 56 44 20 00 	mov    0x204456(%rip),%rax        # 805970 <__mzerosf+0x2c0>
  60151a:	66 0f 6e 08          	movd   (%rax),%xmm1
  60151e:	0f 57 c1             	xorps  %xmm1,%xmm0
  601521:	66 0f 7e 45 f0       	movd   %xmm0,-0x10(%rbp)
  601526:	66 0f 6e 45 f8       	movd   -0x8(%rbp),%xmm0
  60152b:	66 0f 7e 45 f4       	movd   %xmm0,-0xc(%rbp)
  601530:	48 8b 45 f0          	mov    -0x10(%rbp),%rax
  601534:	c9                   	leave
  601535:	c3                   	ret

0000000000601536 <f32x2_perp_ccw>:
  601536:	55                   	push   %rbp
  601537:	48 89 e5             	mov    %rsp,%rbp
  60153a:	48 81 ec 10 00 00 00 	sub    $0x10,%rsp
  601541:	48 89 7d f8          	mov    %rdi,-0x8(%rbp)
  601545:	66 0f 6e 45 fc       	movd   -0x4(%rbp),%xmm0
  60154a:	66 0f 7e 45 f0       	movd   %xmm0,-0x10(%rbp)
  60154f:	66 0f 6e 45 f8       	movd   -0x8(%rbp),%xmm0
  601554:	48 8b 05 15 44 20 00 	mov    0x204415(%rip),%rax        # 805970 <__mzerosf+0x2c0>
  60155b:	66 0f 6e 08          	movd   (%rax),%xmm1
  60155f:	0f 57 c1             	xorps  %xmm1,%xmm0
  601562:	66 0f 7e 45 f4       	movd   %xmm0,-0xc(%rbp)
  601567:	48 8b 45 f0          	mov    -0x10(%rbp),%rax
  60156b:	c9                   	leave
  60156c:	c3                   	ret

000000000060156d <f32x2_unit_perp>:
  60156d:	55                   	push   %rbp
  60156e:	48 89 e5             	mov    %rsp,%rbp
  601571:	48 81 ec 20 00 00 00 	sub    $0x20,%rsp
  601578:	48 89 7d f8          	mov    %rdi,-0x8(%rbp)
  60157c:	48 8b 45 f8          	mov    -0x8(%rbp),%rax
  601580:	48 89 c7             	mov    %rax,%rdi
  601583:	e8 29 fd ff ff       	call   6012b1 <f32x2_unit>
  601588:	48 89 45 e8          	mov    %rax,-0x18(%rbp)
  60158c:	48 8d 75 e8          	lea    -0x18(%rbp),%rsi
  601590:	48 8d 7d f0          	lea    -0x10(%rbp),%rdi
  601594:	48 a5                	movsq  (%rsi),(%rdi)
  601596:	48 8b 45 f0          	mov    -0x10(%rbp),%rax
  60159a:	48 89 c7             	mov    %rax,%rdi
  60159d:	e8 94 ff ff ff       	call   601536 <f32x2_perp_ccw>
  6015a2:	48 89 45 e0          	mov    %rax,-0x20(%rbp)
  6015a6:	48 8d 75 e0          	lea    -0x20(%rbp),%rsi
  6015aa:	48 8d 7d f0          	lea    -0x10(%rbp),%rdi
  6015ae:	48 a5                	movsq  (%rsi),(%rdi)
  6015b0:	48 8b 45 f0          	mov    -0x10(%rbp),%rax
  6015b4:	c9                   	leave
  6015b5:	c3                   	ret

00000000006015b6 <f32x2_reflect>:
  6015b6:	55                   	push   %rbp
  6015b7:	48 89 e5             	mov    %rsp,%rbp
  6015ba:	48 81 ec 20 00 00 00 	sub    $0x20,%rsp
  6015c1:	48 89 7d f8          	mov    %rdi,-0x8(%rbp)
  6015c5:	48 89 75 f0          	mov    %rsi,-0x10(%rbp)
  6015c9:	48 8b 45 f0          	mov    -0x10(%rbp),%rax
  6015cd:	48 89 c6             	mov    %rax,%rsi
  6015d0:	48 8b 45 f8          	mov    -0x8(%rbp),%rax
  6015d4:	48 89 c7             	mov    %rax,%rdi
  6015d7:	e8 b5 fe ff ff       	call   601491 <f32x2_dot>
  6015dc:	66 0f 7e 45 ec       	movd   %xmm0,-0x14(%rbp)
  6015e1:	66 0f 6e 05 bf 3f 20 	movd   0x203fbf(%rip),%xmm0        # 8055a8 <L.82>
  6015e8:	00 
  6015e9:	f3 0f 59 45 ec       	mulss  -0x14(%rbp),%xmm0
  6015ee:	f3 0f 59 45 f0       	mulss  -0x10(%rbp),%xmm0
  6015f3:	66 0f 6e 4d f8       	movd   -0x8(%rbp),%xmm1
  6015f8:	f3 0f 5c c8          	subss  %xmm0,%xmm1
  6015fc:	66 0f 7e 4d e4       	movd   %xmm1,-0x1c(%rbp)
  601601:	66 0f 6e 05 a3 3f 20 	movd   0x203fa3(%rip),%xmm0        # 8055ac <L.83>
  601608:	00 
  601609:	f3 0f 59 45 ec       	mulss  -0x14(%rbp),%xmm0
  60160e:	f3 0f 59 45 f4       	mulss  -0xc(%rbp),%xmm0
  601613:	66 0f 6e 4d fc       	movd   -0x4(%rbp),%xmm1
  601618:	f3 0f 5c c8          	subss  %xmm0,%xmm1
  60161c:	66 0f 7e 4d e8       	movd   %xmm1,-0x18(%rbp)
  601621:	48 8b 45 e4          	mov    -0x1c(%rbp),%rax
  601625:	c9                   	leave
  601626:	c3                   	ret

0000000000601627 <f64x2_set1>:
  601627:	55                   	push   %rbp
  601628:	48 89 e5             	mov    %rsp,%rbp
  60162b:	48 81 ec 30 00 00 00 	sub    $0x30,%rsp
  601632:	66 0f d6 45 f8       	movq   %xmm0,-0x8(%rbp)
  601637:	48 b8 10 00 00 00 00 	movabs $0x10,%rax
  60163e:	00 00 00 
  601641:	49 89 c2             	mov    %rax,%r10
  601644:	b8 00 00 00 00       	mov    $0x0,%eax
  601649:	48 89 c6             	mov    %rax,%rsi
  60164c:	48 8d 45 d8          	lea    -0x28(%rbp),%rax
  601650:	48 89 c7             	mov    %rax,%rdi
  601653:	4c 89 d2             	mov    %r10,%rdx
  601656:	b8 00 00 00 00       	mov    $0x0,%eax
  60165b:	e8 90 3d 00 00       	call   6053f0 <memset@plt>
  601660:	f3 0f 7e 45 f8       	movq   -0x8(%rbp),%xmm0
  601665:	66 0f d6 45 d8       	movq   %xmm0,-0x28(%rbp)
  60166a:	f3 0f 7e 45 f8       	movq   -0x8(%rbp),%xmm0
  60166f:	66 0f d6 45 e0       	movq   %xmm0,-0x20(%rbp)
  601674:	48 8d 75 d8          	lea    -0x28(%rbp),%rsi
  601678:	48 8d 7d e8          	lea    -0x18(%rbp),%rdi
  60167c:	48 a5                	movsq  (%rsi),(%rdi)
  60167e:	48 a5                	movsq  (%rsi),(%rdi)
  601680:	48 8b 45 e8          	mov    -0x18(%rbp),%rax
  601684:	48 8b 55 f0          	mov    -0x10(%rbp),%rdx
  601688:	c9                   	leave
  601689:	c3                   	ret

000000000060168a <f64x2_set>:
  60168a:	55                   	push   %rbp
  60168b:	48 89 e5             	mov    %rsp,%rbp
  60168e:	48 81 ec 30 00 00 00 	sub    $0x30,%rsp
  601695:	66 0f d6 45 f8       	movq   %xmm0,-0x8(%rbp)
  60169a:	66 0f d6 4d f0       	movq   %xmm1,-0x10(%rbp)
  60169f:	48 b8 10 00 00 00 00 	movabs $0x10,%rax
  6016a6:	00 00 00 
  6016a9:	49 89 c2             	mov    %rax,%r10
  6016ac:	b8 00 00 00 00       	mov    $0x0,%eax
  6016b1:	48 89 c6             	mov    %rax,%rsi
  6016b4:	48 8d 45 d0          	lea    -0x30(%rbp),%rax
  6016b8:	48 89 c7             	mov    %rax,%rdi
  6016bb:	4c 89 d2             	mov    %r10,%rdx
  6016be:	b8 00 00 00 00       	mov    $0x0,%eax
  6016c3:	e8 28 3d 00 00       	call   6053f0 <memset@plt>
  6016c8:	f3 0f 7e 45 f8       	movq   -0x8(%rbp),%xmm0
  6016cd:	66 0f d6 45 d0       	movq   %xmm0,-0x30(%rbp)
  6016d2:	f3 0f 7e 45 f0       	movq   -0x10(%rbp),%xmm0
  6016d7:	66 0f d6 45 d8       	movq   %xmm0,-0x28(%rbp)
  6016dc:	48 8d 75 d0          	lea    -0x30(%rbp),%rsi
  6016e0:	48 8d 7d e0          	lea    -0x20(%rbp),%rdi
  6016e4:	48 a5                	movsq  (%rsi),(%rdi)
  6016e6:	48 a5                	movsq  (%rsi),(%rdi)
  6016e8:	48 8b 45 e0          	mov    -0x20(%rbp),%rax
  6016ec:	48 8b 55 e8          	mov    -0x18(%rbp),%rdx
  6016f0:	c9                   	leave
  6016f1:	c3                   	ret

00000000006016f2 <f64x2_load>:
  6016f2:	55                   	push   %rbp
  6016f3:	48 89 e5             	mov    %rsp,%rbp
  6016f6:	48 81 ec 20 00 00 00 	sub    $0x20,%rsp
  6016fd:	48 89 7d f8          	mov    %rdi,-0x8(%rbp)
  601701:	48 b8 10 00 00 00 00 	movabs $0x10,%rax
  601708:	00 00 00 
  60170b:	49 89 c2             	mov    %rax,%r10
  60170e:	48 8b 45 f8          	mov    -0x8(%rbp),%rax
  601712:	48 89 c6             	mov    %rax,%rsi
  601715:	48 8d 45 e8          	lea    -0x18(%rbp),%rax
  601719:	48 89 c7             	mov    %rax,%rdi
  60171c:	4c 89 d2             	mov    %r10,%rdx
  60171f:	e8 dc 3c 00 00       	call   605400 <memcpy@plt>
  601724:	48 8b 45 e8          	mov    -0x18(%rbp),%rax
  601728:	48 8b 55 f0          	mov    -0x10(%rbp),%rdx
  60172c:	c9                   	leave
  60172d:	c3                   	ret

000000000060172e <f64x2_scatter>:
  60172e:	55                   	push   %rbp
  60172f:	48 89 e5             	mov    %rsp,%rbp
  601732:	48 81 ec 20 00 00 00 	sub    $0x20,%rsp
  601739:	48 89 7d f8          	mov    %rdi,-0x8(%rbp)
  60173d:	48 89 75 f0          	mov    %rsi,-0x10(%rbp)
  601741:	48 89 55 e0          	mov    %rdx,-0x20(%rbp)
  601745:	48 89 4d e8          	mov    %rcx,-0x18(%rbp)
  601749:	48 8b 45 f8          	mov    -0x8(%rbp),%rax
  60174d:	f3 0f 7e 45 e0       	movq   -0x20(%rbp),%xmm0
  601752:	66 0f d6 00          	movq   %xmm0,(%rax)
  601756:	48 8b 45 f0          	mov    -0x10(%rbp),%rax
  60175a:	f3 0f 7e 45 e8       	movq   -0x18(%rbp),%xmm0
  60175f:	66 0f d6 00          	movq   %xmm0,(%rax)
  601763:	c9                   	leave
  601764:	c3                   	ret

0000000000601765 <f64x2_add>:
  601765:	55                   	push   %rbp
  601766:	48 89 e5             	mov    %rsp,%rbp
  601769:	48 81 ec 30 00 00 00 	sub    $0x30,%rsp
  601770:	48 89 7d f0          	mov    %rdi,-0x10(%rbp)
  601774:	48 89 75 f8          	mov    %rsi,-0x8(%rbp)
  601778:	48 89 55 e0          	mov    %rdx,-0x20(%rbp)
  60177c:	48 89 4d e8          	mov    %rcx,-0x18(%rbp)
  601780:	f3 0f 7e 45 f0       	movq   -0x10(%rbp),%xmm0
  601785:	f2 0f 58 45 e0       	addsd  -0x20(%rbp),%xmm0
  60178a:	66 0f d6 45 d0       	movq   %xmm0,-0x30(%rbp)
  60178f:	f3 0f 7e 45 f8       	movq   -0x8(%rbp),%xmm0
  601794:	f2 0f 58 45 e8       	addsd  -0x18(%rbp),%xmm0
  601799:	66 0f d6 45 d8       	movq   %xmm0,-0x28(%rbp)
  60179e:	48 8b 45 d0          	mov    -0x30(%rbp),%rax
  6017a2:	48 8b 55 d8          	mov    -0x28(%rbp),%rdx
  6017a6:	c9                   	leave
  6017a7:	c3                   	ret

00000000006017a8 <f64x2_add1>:
  6017a8:	55                   	push   %rbp
  6017a9:	48 89 e5             	mov    %rsp,%rbp
  6017ac:	48 81 ec 30 00 00 00 	sub    $0x30,%rsp
  6017b3:	48 89 7d f0          	mov    %rdi,-0x10(%rbp)
  6017b7:	48 89 75 f8          	mov    %rsi,-0x8(%rbp)
  6017bb:	66 0f d6 45 e8       	movq   %xmm0,-0x18(%rbp)
  6017c0:	f3 0f 7e 45 f0       	movq   -0x10(%rbp),%xmm0
  6017c5:	f2 0f 58 45 e8       	addsd  -0x18(%rbp),%xmm0
  6017ca:	66 0f d6 45 d8       	movq   %xmm0,-0x28(%rbp)
  6017cf:	f3 0f 7e 45 f8       	movq   -0x8(%rbp),%xmm0
  6017d4:	f2 0f 58 45 e8       	addsd  -0x18(%rbp),%xmm0
  6017d9:	66 0f d6 45 e0       	movq   %xmm0,-0x20(%rbp)
  6017de:	48 8b 45 d8          	mov    -0x28(%rbp),%rax
  6017e2:	48 8b 55 e0          	mov    -0x20(%rbp),%rdx
  6017e6:	c9                   	leave
  6017e7:	c3                   	ret

00000000006017e8 <f64x2_sub>:
  6017e8:	55                   	push   %rbp
  6017e9:	48 89 e5             	mov    %rsp,%rbp
  6017ec:	48 81 ec 30 00 00 00 	sub    $0x30,%rsp
  6017f3:	48 89 7d f0          	mov    %rdi,-0x10(%rbp)
  6017f7:	48 89 75 f8          	mov    %rsi,-0x8(%rbp)
  6017fb:	48 89 55 e0          	mov    %rdx,-0x20(%rbp)
  6017ff:	48 89 4d e8          	mov    %rcx,-0x18(%rbp)
  601803:	f3 0f 7e 45 f0       	movq   -0x10(%rbp),%xmm0
  601808:	f2 0f 5c 45 e0       	subsd  -0x20(%rbp),%xmm0
  60180d:	66 0f d6 45 d0       	movq   %xmm0,-0x30(%rbp)
  601812:	f3 0f 7e 45 f8       	movq   -0x8(%rbp),%xmm0
  601817:	f2 0f 5c 45 e8       	subsd  -0x18(%rbp),%xmm0
  60181c:	66 0f d6 45 d8       	movq   %xmm0,-0x28(%rbp)
  601821:	48 8b 45 d0          	mov    -0x30(%rbp),%rax
  601825:	48 8b 55 d8          	mov    -0x28(%rbp),%rdx
  601829:	c9                   	leave
  60182a:	c3                   	ret

000000000060182b <f64x2_sub1>:
  60182b:	55                   	push   %rbp
  60182c:	48 89 e5             	mov    %rsp,%rbp
  60182f:	48 81 ec 30 00 00 00 	sub    $0x30,%rsp
  601836:	48 89 7d f0          	mov    %rdi,-0x10(%rbp)
  60183a:	48 89 75 f8          	mov    %rsi,-0x8(%rbp)
  60183e:	66 0f d6 45 e8       	movq   %xmm0,-0x18(%rbp)
  601843:	f3 0f 7e 45 f0       	movq   -0x10(%rbp),%xmm0
  601848:	f2 0f 5c 45 e8       	subsd  -0x18(%rbp),%xmm0
  60184d:	66 0f d6 45 d8       	movq   %xmm0,-0x28(%rbp)
  601852:	f3 0f 7e 45 f8       	movq   -0x8(%rbp),%xmm0
  601857:	f2 0f 5c 45 e8       	subsd  -0x18(%rbp),%xmm0
  60185c:	66 0f d6 45 e0       	movq   %xmm0,-0x20(%rbp)
  601861:	48 8b 45 d8          	mov    -0x28(%rbp),%rax
  601865:	48 8b 55 e0          	mov    -0x20(%rbp),%rdx
  601869:	c9                   	leave
  60186a:	c3                   	ret

000000000060186b <f64x2_1sub>:
  60186b:	55                   	push   %rbp
  60186c:	48 89 e5             	mov    %rsp,%rbp
  60186f:	48 81 ec 30 00 00 00 	sub    $0x30,%rsp
  601876:	66 0f d6 45 f8       	movq   %xmm0,-0x8(%rbp)
  60187b:	48 89 7d e8          	mov    %rdi,-0x18(%rbp)
  60187f:	48 89 75 f0          	mov    %rsi,-0x10(%rbp)
  601883:	f3 0f 7e 45 f8       	movq   -0x8(%rbp),%xmm0
  601888:	f2 0f 5c 45 e8       	subsd  -0x18(%rbp),%xmm0
  60188d:	66 0f d6 45 d8       	movq   %xmm0,-0x28(%rbp)
  601892:	f3 0f 7e 45 f8       	movq   -0x8(%rbp),%xmm0
  601897:	f2 0f 5c 45 f0       	subsd  -0x10(%rbp),%xmm0
  60189c:	66 0f d6 45 e0       	movq   %xmm0,-0x20(%rbp)
  6018a1:	48 8b 45 d8          	mov    -0x28(%rbp),%rax
  6018a5:	48 8b 55 e0          	mov    -0x20(%rbp),%rdx
  6018a9:	c9                   	leave
  6018aa:	c3                   	ret

00000000006018ab <f64x2_mul>:
  6018ab:	55                   	push   %rbp
  6018ac:	48 89 e5             	mov    %rsp,%rbp
  6018af:	48 81 ec 30 00 00 00 	sub    $0x30,%rsp
  6018b6:	48 89 7d f0          	mov    %rdi,-0x10(%rbp)
  6018ba:	48 89 75 f8          	mov    %rsi,-0x8(%rbp)
  6018be:	48 89 55 e0          	mov    %rdx,-0x20(%rbp)
  6018c2:	48 89 4d e8          	mov    %rcx,-0x18(%rbp)
  6018c6:	f3 0f 7e 45 f0       	movq   -0x10(%rbp),%xmm0
  6018cb:	f2 0f 59 45 e0       	mulsd  -0x20(%rbp),%xmm0
  6018d0:	66 0f d6 45 d0       	movq   %xmm0,-0x30(%rbp)
  6018d5:	f3 0f 7e 45 f8       	movq   -0x8(%rbp),%xmm0
  6018da:	f2 0f 59 45 e8       	mulsd  -0x18(%rbp),%xmm0
  6018df:	66 0f d6 45 d8       	movq   %xmm0,-0x28(%rbp)
  6018e4:	48 8b 45 d0          	mov    -0x30(%rbp),%rax
  6018e8:	48 8b 55 d8          	mov    -0x28(%rbp),%rdx
  6018ec:	c9                   	leave
  6018ed:	c3                   	ret

00000000006018ee <f64x2_mul1>:
  6018ee:	55                   	push   %rbp
  6018ef:	48 89 e5             	mov    %rsp,%rbp
  6018f2:	48 81 ec 30 00 00 00 	sub    $0x30,%rsp
  6018f9:	48 89 7d f0          	mov    %rdi,-0x10(%rbp)
  6018fd:	48 89 75 f8          	mov    %rsi,-0x8(%rbp)
  601901:	66 0f d6 45 e8       	movq   %xmm0,-0x18(%rbp)
  601906:	f3 0f 7e 45 f0       	movq   -0x10(%rbp),%xmm0
  60190b:	f2 0f 59 45 e8       	mulsd  -0x18(%rbp),%xmm0
  601910:	66 0f d6 45 d8       	movq   %xmm0,-0x28(%rbp)
  601915:	f3 0f 7e 45 f8       	movq   -0x8(%rbp),%xmm0
  60191a:	f2 0f 59 45 e8       	mulsd  -0x18(%rbp),%xmm0
  60191f:	66 0f d6 45 e0       	movq   %xmm0,-0x20(%rbp)
  601924:	48 8b 45 d8          	mov    -0x28(%rbp),%rax
  601928:	48 8b 55 e0          	mov    -0x20(%rbp),%rdx
  60192c:	c9                   	leave
  60192d:	c3                   	ret

000000000060192e <f64x2_div>:
  60192e:	55                   	push   %rbp
  60192f:	48 89 e5             	mov    %rsp,%rbp
  601932:	48 81 ec 30 00 00 00 	sub    $0x30,%rsp
  601939:	48 89 7d f0          	mov    %rdi,-0x10(%rbp)
  60193d:	48 89 75 f8          	mov    %rsi,-0x8(%rbp)
  601941:	48 89 55 e0          	mov    %rdx,-0x20(%rbp)
  601945:	48 89 4d e8          	mov    %rcx,-0x18(%rbp)
  601949:	f3 0f 7e 45 f0       	movq   -0x10(%rbp),%xmm0
  60194e:	f2 0f 5e 45 e0       	divsd  -0x20(%rbp),%xmm0
  601953:	66 0f d6 45 d0       	movq   %xmm0,-0x30(%rbp)
  601958:	f3 0f 7e 45 f8       	movq   -0x8(%rbp),%xmm0
  60195d:	f2 0f 5e 45 e8       	divsd  -0x18(%rbp),%xmm0
  601962:	66 0f d6 45 d8       	movq   %xmm0,-0x28(%rbp)
  601967:	48 8b 45 d0          	mov    -0x30(%rbp),%rax
  60196b:	48 8b 55 d8          	mov    -0x28(%rbp),%rdx
  60196f:	c9                   	leave
  601970:	c3                   	ret

0000000000601971 <f64x2_div1>:
  601971:	55                   	push   %rbp
  601972:	48 89 e5             	mov    %rsp,%rbp
  601975:	48 81 ec 30 00 00 00 	sub    $0x30,%rsp
  60197c:	48 89 7d f0          	mov    %rdi,-0x10(%rbp)
  601980:	48 89 75 f8          	mov    %rsi,-0x8(%rbp)
  601984:	66 0f d6 45 e8       	movq   %xmm0,-0x18(%rbp)
  601989:	f3 0f 7e 45 f0       	movq   -0x10(%rbp),%xmm0
  60198e:	f2 0f 5e 45 e8       	divsd  -0x18(%rbp),%xmm0
  601993:	66 0f d6 45 d8       	movq   %xmm0,-0x28(%rbp)
  601998:	f3 0f 7e 45 f8       	movq   -0x8(%rbp),%xmm0
  60199d:	f2 0f 5e 45 e8       	divsd  -0x18(%rbp),%xmm0
  6019a2:	66 0f d6 45 e0       	movq   %xmm0,-0x20(%rbp)
  6019a7:	48 8b 45 d8          	mov    -0x28(%rbp),%rax
  6019ab:	48 8b 55 e0          	mov    -0x20(%rbp),%rdx
  6019af:	c9                   	leave
  6019b0:	c3                   	ret

00000000006019b1 <f64x2_1div>:
  6019b1:	55                   	push   %rbp
  6019b2:	48 89 e5             	mov    %rsp,%rbp
  6019b5:	48 81 ec 30 00 00 00 	sub    $0x30,%rsp
  6019bc:	66 0f d6 45 f8       	movq   %xmm0,-0x8(%rbp)
  6019c1:	48 89 7d e8          	mov    %rdi,-0x18(%rbp)
  6019c5:	48 89 75 f0          	mov    %rsi,-0x10(%rbp)
  6019c9:	f3 0f 7e 45 f8       	movq   -0x8(%rbp),%xmm0
  6019ce:	f2 0f 5e 45 e8       	divsd  -0x18(%rbp),%xmm0
  6019d3:	66 0f d6 45 d8       	movq   %xmm0,-0x28(%rbp)
  6019d8:	f3 0f 7e 45 f8       	movq   -0x8(%rbp),%xmm0
  6019dd:	f2 0f 5e 45 f0       	divsd  -0x10(%rbp),%xmm0
  6019e2:	66 0f d6 45 e0       	movq   %xmm0,-0x20(%rbp)
  6019e7:	48 8b 45 d8          	mov    -0x28(%rbp),%rax
  6019eb:	48 8b 55 e0          	mov    -0x20(%rbp),%rdx
  6019ef:	c9                   	leave
  6019f0:	c3                   	ret

00000000006019f1 <f64x2_sqrt>:
  6019f1:	55                   	push   %rbp
  6019f2:	48 89 e5             	mov    %rsp,%rbp
  6019f5:	48 81 ec 30 00 00 00 	sub    $0x30,%rsp
  6019fc:	48 89 7d f0          	mov    %rdi,-0x10(%rbp)
  601a00:	48 89 75 f8          	mov    %rsi,-0x8(%rbp)
  601a04:	f3 0f 7e 45 f0       	movq   -0x10(%rbp),%xmm0
  601a09:	66 0f 14 c0          	unpcklpd %xmm0,%xmm0
  601a0d:	66 0f 5a c0          	cvtpd2ps %xmm0,%xmm0
  601a11:	66 0f 7e 45 dc       	movd   %xmm0,-0x24(%rbp)
  601a16:	66 0f 6e 45 dc       	movd   -0x24(%rbp),%xmm0
  601a1b:	e8 f0 39 00 00       	call   605410 <sqrtf@plt>
  601a20:	0f 14 c0             	unpcklps %xmm0,%xmm0
  601a23:	0f 5a c0             	cvtps2pd %xmm0,%xmm0
  601a26:	66 0f d6 45 e0       	movq   %xmm0,-0x20(%rbp)
  601a2b:	f3 0f 7e 45 f8       	movq   -0x8(%rbp),%xmm0
  601a30:	66 0f 14 c0          	unpcklpd %xmm0,%xmm0
  601a34:	66 0f 5a c0          	cvtpd2ps %xmm0,%xmm0
  601a38:	66 0f 7e 45 dc       	movd   %xmm0,-0x24(%rbp)
  601a3d:	66 0f 6e 45 dc       	movd   -0x24(%rbp),%xmm0
  601a42:	e8 c9 39 00 00       	call   605410 <sqrtf@plt>
  601a47:	0f 14 c0             	unpcklps %xmm0,%xmm0
  601a4a:	0f 5a c0             	cvtps2pd %xmm0,%xmm0
  601a4d:	66 0f d6 45 e8       	movq   %xmm0,-0x18(%rbp)
  601a52:	48 8b 45 e0          	mov    -0x20(%rbp),%rax
  601a56:	48 8b 55 e8          	mov    -0x18(%rbp),%rdx
  601a5a:	c9                   	leave
  601a5b:	c3                   	ret

0000000000601a5c <f64x2_rsqrt>:
  601a5c:	55                   	push   %rbp
  601a5d:	48 89 e5             	mov    %rsp,%rbp
  601a60:	48 81 ec 20 00 00 00 	sub    $0x20,%rsp
  601a67:	48 89 7d f0          	mov    %rdi,-0x10(%rbp)
  601a6b:	48 89 75 f8          	mov    %rsi,-0x8(%rbp)
  601a6f:	f3 0f 7e 45 f0       	movq   -0x10(%rbp),%xmm0
  601a74:	e8 c7 39 00 00       	call   605440 <sqrt@plt>
  601a79:	f3 0f 7e 0d 2f 3b 20 	movq   0x203b2f(%rip),%xmm1        # 8055b0 <L.84>
  601a80:	00 
  601a81:	f2 0f 5e c8          	divsd  %xmm0,%xmm1
  601a85:	66 0f d6 4d e0       	movq   %xmm1,-0x20(%rbp)
  601a8a:	f3 0f 7e 45 f8       	movq   -0x8(%rbp),%xmm0
  601a8f:	e8 ac 39 00 00       	call   605440 <sqrt@plt>
  601a94:	f3 0f 7e 0d 1c 3b 20 	movq   0x203b1c(%rip),%xmm1        # 8055b8 <L.85>
  601a9b:	00 
  601a9c:	f2 0f 5e c8          	divsd  %xmm0,%xmm1
  601aa0:	66 0f d6 4d e8       	movq   %xmm1,-0x18(%rbp)
  601aa5:	48 8b 45 e0          	mov    -0x20(%rbp),%rax
  601aa9:	48 8b 55 e8          	mov    -0x18(%rbp),%rdx
  601aad:	c9                   	leave
  601aae:	c3                   	ret

0000000000601aaf <f64x2_abs>:
  601aaf:	55                   	push   %rbp
  601ab0:	48 89 e5             	mov    %rsp,%rbp
  601ab3:	48 81 ec 20 00 00 00 	sub    $0x20,%rsp
  601aba:	48 89 7d f0          	mov    %rdi,-0x10(%rbp)
  601abe:	48 89 75 f8          	mov    %rsi,-0x8(%rbp)
  601ac2:	f3 0f 7e 45 f0       	movq   -0x10(%rbp),%xmm0
  601ac7:	e8 84 39 00 00       	call   605450 <fabs@plt>
  601acc:	66 0f d6 45 e0       	movq   %xmm0,-0x20(%rbp)
  601ad1:	f3 0f 7e 45 f8       	movq   -0x8(%rbp),%xmm0
  601ad6:	e8 75 39 00 00       	call   605450 <fabs@plt>
  601adb:	66 0f d6 45 e8       	movq   %xmm0,-0x18(%rbp)
  601ae0:	48 8b 45 e0          	mov    -0x20(%rbp),%rax
  601ae4:	48 8b 55 e8          	mov    -0x18(%rbp),%rdx
  601ae8:	c9                   	leave
  601ae9:	c3                   	ret

0000000000601aea <f64x2_length_squared>:
  601aea:	55                   	push   %rbp
  601aeb:	48 89 e5             	mov    %rsp,%rbp
  601aee:	48 81 ec 20 00 00 00 	sub    $0x20,%rsp
  601af5:	48 89 7d f0          	mov    %rdi,-0x10(%rbp)
  601af9:	48 89 75 f8          	mov    %rsi,-0x8(%rbp)
  601afd:	f3 0f 7e 45 f0       	movq   -0x10(%rbp),%xmm0
  601b02:	f2 0f 59 45 f0       	mulsd  -0x10(%rbp),%xmm0
  601b07:	f3 0f 7e 4d f8       	movq   -0x8(%rbp),%xmm1
  601b0c:	f2 0f 59 4d f8       	mulsd  -0x8(%rbp),%xmm1
  601b11:	f2 0f 58 c1          	addsd  %xmm1,%xmm0
  601b15:	66 0f d6 45 e8       	movq   %xmm0,-0x18(%rbp)
  601b1a:	f3 0f 7e 45 e8       	movq   -0x18(%rbp),%xmm0
  601b1f:	c9                   	leave
  601b20:	c3                   	ret

0000000000601b21 <f64x2_length>:
  601b21:	55                   	push   %rbp
  601b22:	48 89 e5             	mov    %rsp,%rbp
  601b25:	48 81 ec 20 00 00 00 	sub    $0x20,%rsp
  601b2c:	48 89 7d f0          	mov    %rdi,-0x10(%rbp)
  601b30:	48 89 75 f8          	mov    %rsi,-0x8(%rbp)
  601b34:	48 8b 45 f0          	mov    -0x10(%rbp),%rax
  601b38:	48 8b 4d f8          	mov    -0x8(%rbp),%rcx
  601b3c:	48 89 c7             	mov    %rax,%rdi
  601b3f:	48 89 ce             	mov    %rcx,%rsi
  601b42:	e8 a3 ff ff ff       	call   601aea <f64x2_length_squared>
  601b47:	66 0f d6 45 e0       	movq   %xmm0,-0x20(%rbp)
  601b4c:	f3 0f 7e 45 e0       	movq   -0x20(%rbp),%xmm0
  601b51:	e8 ea 38 00 00       	call   605440 <sqrt@plt>
  601b56:	66 0f d6 45 e8       	movq   %xmm0,-0x18(%rbp)
  601b5b:	f3 0f 7e 45 e8       	movq   -0x18(%rbp),%xmm0
  601b60:	c9                   	leave
  601b61:	c3                   	ret

0000000000601b62 <f64x2_unit>:
  601b62:	55                   	push   %rbp
  601b63:	48 89 e5             	mov    %rsp,%rbp
  601b66:	48 81 ec 60 00 00 00 	sub    $0x60,%rsp
  601b6d:	48 89 7d f0          	mov    %rdi,-0x10(%rbp)
  601b71:	48 89 75 f8          	mov    %rsi,-0x8(%rbp)
  601b75:	48 8b 45 f0          	mov    -0x10(%rbp),%rax
  601b79:	48 8b 4d f8          	mov    -0x8(%rbp),%rcx
  601b7d:	48 89 c7             	mov    %rax,%rdi
  601b80:	48 89 ce             	mov    %rcx,%rsi
  601b83:	e8 99 ff ff ff       	call   601b21 <f64x2_length>
  601b88:	66 0f d6 45 d8       	movq   %xmm0,-0x28(%rbp)
  601b8d:	f3 0f 7e 45 d8       	movq   -0x28(%rbp),%xmm0
  601b92:	e8 90 fa ff ff       	call   601627 <f64x2_set1>
  601b97:	48 89 45 c8          	mov    %rax,-0x38(%rbp)
  601b9b:	48 89 55 d0          	mov    %rdx,-0x30(%rbp)
  601b9f:	48 8d 75 c8          	lea    -0x38(%rbp),%rsi
  601ba3:	48 8d 7d e0          	lea    -0x20(%rbp),%rdi
  601ba7:	48 a5                	movsq  (%rsi),(%rdi)
  601ba9:	48 a5                	movsq  (%rsi),(%rdi)
  601bab:	48 8b 45 e0          	mov    -0x20(%rbp),%rax
  601baf:	48 8b 4d e8          	mov    -0x18(%rbp),%rcx
  601bb3:	49 89 c2             	mov    %rax,%r10
  601bb6:	49 89 cb             	mov    %rcx,%r11
  601bb9:	48 8b 45 f0          	mov    -0x10(%rbp),%rax
  601bbd:	48 8b 4d f8          	mov    -0x8(%rbp),%rcx
  601bc1:	48 89 c7             	mov    %rax,%rdi
  601bc4:	48 89 ce             	mov    %rcx,%rsi
  601bc7:	4c 89 d2             	mov    %r10,%rdx
  601bca:	4c 89 d9             	mov    %r11,%rcx
  601bcd:	e8 5c fd ff ff       	call   60192e <f64x2_div>
  601bd2:	48 89 45 a8          	mov    %rax,-0x58(%rbp)
  601bd6:	48 89 55 b0          	mov    %rdx,-0x50(%rbp)
  601bda:	48 8d 75 a8          	lea    -0x58(%rbp),%rsi
  601bde:	48 8d 7d b8          	lea    -0x48(%rbp),%rdi
  601be2:	48 a5                	movsq  (%rsi),(%rdi)
  601be4:	48 a5                	movsq  (%rsi),(%rdi)
  601be6:	48 8b 45 b8          	mov    -0x48(%rbp),%rax
  601bea:	48 8b 55 c0          	mov    -0x40(%rbp),%rdx
  601bee:	c9                   	leave
  601bef:	c3                   	ret

0000000000601bf0 <f64x2_distance>:
  601bf0:	55                   	push   %rbp
  601bf1:	48 89 e5             	mov    %rsp,%rbp
  601bf4:	48 81 ec 50 00 00 00 	sub    $0x50,%rsp
  601bfb:	48 89 7d f0          	mov    %rdi,-0x10(%rbp)
  601bff:	48 89 75 f8          	mov    %rsi,-0x8(%rbp)
  601c03:	48 89 55 e0          	mov    %rdx,-0x20(%rbp)
  601c07:	48 89 4d e8          	mov    %rcx,-0x18(%rbp)
  601c0b:	48 8b 45 f0          	mov    -0x10(%rbp),%rax
  601c0f:	48 8b 4d f8          	mov    -0x8(%rbp),%rcx
  601c13:	49 89 c2             	mov    %rax,%r10
  601c16:	49 89 cb             	mov    %rcx,%r11
  601c19:	48 8b 45 e0          	mov    -0x20(%rbp),%rax
  601c1d:	48 8b 4d e8          	mov    -0x18(%rbp),%rcx
  601c21:	48 89 c7             	mov    %rax,%rdi
  601c24:	48 89 ce             	mov    %rcx,%rsi
  601c27:	4c 89 d2             	mov    %r10,%rdx
  601c2a:	4c 89 d9             	mov    %r11,%rcx
  601c2d:	e8 b6 fb ff ff       	call   6017e8 <f64x2_sub>
  601c32:	48 89 45 c0          	mov    %rax,-0x40(%rbp)
  601c36:	48 89 55 c8          	mov    %rdx,-0x38(%rbp)
  601c3a:	48 8d 75 c0          	lea    -0x40(%rbp),%rsi
  601c3e:	48 8d 7d d0          	lea    -0x30(%rbp),%rdi
  601c42:	48 a5                	movsq  (%rsi),(%rdi)
  601c44:	48 a5                	movsq  (%rsi),(%rdi)
  601c46:	48 8b 45 d0          	mov    -0x30(%rbp),%rax
  601c4a:	48 8b 4d d8          	mov    -0x28(%rbp),%rcx
  601c4e:	48 89 c7             	mov    %rax,%rdi
  601c51:	48 89 ce             	mov    %rcx,%rsi
  601c54:	e8 c8 fe ff ff       	call   601b21 <f64x2_length>
  601c59:	66 0f d6 45 b8       	movq   %xmm0,-0x48(%rbp)
  601c5e:	f3 0f 7e 45 b8       	movq   -0x48(%rbp),%xmm0
  601c63:	c9                   	leave
  601c64:	c3                   	ret

0000000000601c65 <f64_lerp>:
  601c65:	55                   	push   %rbp
  601c66:	48 89 e5             	mov    %rsp,%rbp
  601c69:	48 81 ec 20 00 00 00 	sub    $0x20,%rsp
  601c70:	66 0f d6 45 f8       	movq   %xmm0,-0x8(%rbp)
  601c75:	66 0f d6 4d f0       	movq   %xmm1,-0x10(%rbp)
  601c7a:	66 0f d6 55 e8       	movq   %xmm2,-0x18(%rbp)
  601c7f:	f3 0f 7e 45 f0       	movq   -0x10(%rbp),%xmm0
  601c84:	f2 0f 5c 45 f8       	subsd  -0x8(%rbp),%xmm0
  601c89:	f2 0f 59 45 e8       	mulsd  -0x18(%rbp),%xmm0
  601c8e:	f2 0f 58 45 f8       	addsd  -0x8(%rbp),%xmm0
  601c93:	c9                   	leave
  601c94:	c3                   	ret

0000000000601c95 <f64x2_lerp>:
  601c95:	55                   	push   %rbp
  601c96:	48 89 e5             	mov    %rsp,%rbp
  601c99:	48 81 ec 40 00 00 00 	sub    $0x40,%rsp
  601ca0:	48 89 7d f0          	mov    %rdi,-0x10(%rbp)
  601ca4:	48 89 75 f8          	mov    %rsi,-0x8(%rbp)
  601ca8:	48 89 55 e0          	mov    %rdx,-0x20(%rbp)
  601cac:	48 89 4d e8          	mov    %rcx,-0x18(%rbp)
  601cb0:	66 0f d6 45 d8       	movq   %xmm0,-0x28(%rbp)
  601cb5:	f3 0f 7e 55 d8       	movq   -0x28(%rbp),%xmm2
  601cba:	f3 0f 7e 4d e0       	movq   -0x20(%rbp),%xmm1
  601cbf:	f3 0f 7e 45 f0       	movq   -0x10(%rbp),%xmm0
  601cc4:	e8 9c ff ff ff       	call   601c65 <f64_lerp>
  601cc9:	66 0f d6 45 c8       	movq   %xmm0,-0x38(%rbp)
  601cce:	f3 0f 7e 55 d8       	movq   -0x28(%rbp),%xmm2
  601cd3:	f3 0f 7e 4d e8       	movq   -0x18(%rbp),%xmm1
  601cd8:	f3 0f 7e 45 f8       	movq   -0x8(%rbp),%xmm0
  601cdd:	e8 83 ff ff ff       	call   601c65 <f64_lerp>
  601ce2:	66 0f d6 45 d0       	movq   %xmm0,-0x30(%rbp)
  601ce7:	48 8b 45 c8          	mov    -0x38(%rbp),%rax
  601ceb:	48 8b 55 d0          	mov    -0x30(%rbp),%rdx
  601cef:	c9                   	leave
  601cf0:	c3                   	ret

0000000000601cf1 <f64x2_angle>:
  601cf1:	55                   	push   %rbp
  601cf2:	48 89 e5             	mov    %rsp,%rbp
  601cf5:	48 81 ec 20 00 00 00 	sub    $0x20,%rsp
  601cfc:	48 89 7d f0          	mov    %rdi,-0x10(%rbp)
  601d00:	48 89 75 f8          	mov    %rsi,-0x8(%rbp)
  601d04:	f3 0f 7e 4d f0       	movq   -0x10(%rbp),%xmm1
  601d09:	f3 0f 7e 45 f8       	movq   -0x8(%rbp),%xmm0
  601d0e:	e8 4d 37 00 00       	call   605460 <atan2@plt>
  601d13:	66 0f d6 45 e8       	movq   %xmm0,-0x18(%rbp)
  601d18:	f3 0f 7e 45 e8       	movq   -0x18(%rbp),%xmm0
  601d1d:	c9                   	leave
  601d1e:	c3                   	ret

0000000000601d1f <f64x2_trunc>:
  601d1f:	55                   	push   %rbp
  601d20:	48 89 e5             	mov    %rsp,%rbp
  601d23:	48 81 ec 60 00 00 00 	sub    $0x60,%rsp
  601d2a:	48 89 7d f0          	mov    %rdi,-0x10(%rbp)
  601d2e:	48 89 75 f8          	mov    %rsi,-0x8(%rbp)
  601d32:	66 0f d6 45 e8       	movq   %xmm0,-0x18(%rbp)
  601d37:	48 8b 45 f0          	mov    -0x10(%rbp),%rax
  601d3b:	48 8b 4d f8          	mov    -0x8(%rbp),%rcx
  601d3f:	48 89 c7             	mov    %rax,%rdi
  601d42:	48 89 ce             	mov    %rcx,%rsi
  601d45:	e8 a0 fd ff ff       	call   601aea <f64x2_length_squared>
  601d4a:	66 0f d6 45 e0       	movq   %xmm0,-0x20(%rbp)
  601d4f:	f3 0f 7e 45 e8       	movq   -0x18(%rbp),%xmm0
  601d54:	f2 0f 59 45 e8       	mulsd  -0x18(%rbp),%xmm0
  601d59:	66 0f 2f 45 e0       	comisd -0x20(%rbp),%xmm0
  601d5e:	0f 8a 13 00 00 00    	jp     601d77 <f64x2_trunc+0x58>
  601d64:	0f 82 0d 00 00 00    	jb     601d77 <f64x2_trunc+0x58>
  601d6a:	48 8b 45 f0          	mov    -0x10(%rbp),%rax
  601d6e:	48 8b 55 f8          	mov    -0x8(%rbp),%rdx
  601d72:	e9 6a 00 00 00       	jmp    601de1 <f64x2_trunc+0xc2>
  601d77:	f3 0f 7e 45 e0       	movq   -0x20(%rbp),%xmm0
  601d7c:	66 0f 14 c0          	unpcklpd %xmm0,%xmm0
  601d80:	66 0f 5a c0          	cvtpd2ps %xmm0,%xmm0
  601d84:	66 0f 7e 45 d4       	movd   %xmm0,-0x2c(%rbp)
  601d89:	66 0f 6e 45 d4       	movd   -0x2c(%rbp),%xmm0
  601d8e:	e8 7d 36 00 00       	call   605410 <sqrtf@plt>
  601d93:	0f 14 c0             	unpcklps %xmm0,%xmm0
  601d96:	0f 5a c0             	cvtps2pd %xmm0,%xmm0
  601d99:	66 0f d6 45 d8       	movq   %xmm0,-0x28(%rbp)
  601d9e:	f3 0f 7e 45 e8       	movq   -0x18(%rbp),%xmm0
  601da3:	f2 0f 5e 45 d8       	divsd  -0x28(%rbp),%xmm0
  601da8:	66 0f d6 45 c8       	movq   %xmm0,-0x38(%rbp)
  601dad:	f3 0f 7e 45 c8       	movq   -0x38(%rbp),%xmm0
  601db2:	48 8b 45 f0          	mov    -0x10(%rbp),%rax
  601db6:	48 8b 4d f8          	mov    -0x8(%rbp),%rcx
  601dba:	48 89 c7             	mov    %rax,%rdi
  601dbd:	48 89 ce             	mov    %rcx,%rsi
  601dc0:	e8 29 fb ff ff       	call   6018ee <f64x2_mul1>
  601dc5:	48 89 45 a8          	mov    %rax,-0x58(%rbp)
  601dc9:	48 89 55 b0          	mov    %rdx,-0x50(%rbp)
  601dcd:	48 8d 75 a8          	lea    -0x58(%rbp),%rsi
  601dd1:	48 8d 7d b8          	lea    -0x48(%rbp),%rdi
  601dd5:	48 a5                	movsq  (%rsi),(%rdi)
  601dd7:	48 a5                	movsq  (%rsi),(%rdi)
  601dd9:	48 8b 45 b8          	mov    -0x48(%rbp),%rax
  601ddd:	48 8b 55 c0          	mov    -0x40(%rbp),%rdx
  601de1:	c9                   	leave
  601de2:	c3                   	ret

0000000000601de3 <f64x2_dot>:
  601de3:	55                   	push   %rbp
  601de4:	48 89 e5             	mov    %rsp,%rbp
  601de7:	48 81 ec 30 00 00 00 	sub    $0x30,%rsp
  601dee:	48 89 7d f0          	mov    %rdi,-0x10(%rbp)
  601df2:	48 89 75 f8          	mov    %rsi,-0x8(%rbp)
  601df6:	48 89 55 e0          	mov    %rdx,-0x20(%rbp)
  601dfa:	48 89 4d e8          	mov    %rcx,-0x18(%rbp)
  601dfe:	f3 0f 7e 45 f0       	movq   -0x10(%rbp),%xmm0
  601e03:	f2 0f 59 45 e0       	mulsd  -0x20(%rbp),%xmm0
  601e08:	f3 0f 7e 4d f8       	movq   -0x8(%rbp),%xmm1
  601e0d:	f2 0f 59 4d e8       	mulsd  -0x18(%rbp),%xmm1
  601e12:	f2 0f 58 c1          	addsd  %xmm1,%xmm0
  601e16:	66 0f d6 45 d8       	movq   %xmm0,-0x28(%rbp)
  601e1b:	f3 0f 7e 45 d8       	movq   -0x28(%rbp),%xmm0
  601e20:	c9                   	leave
  601e21:	c3                   	ret

0000000000601e22 <f64x2_cross>:
  601e22:	55                   	push   %rbp
  601e23:	48 89 e5             	mov    %rsp,%rbp
  601e26:	48 81 ec 30 00 00 00 	sub    $0x30,%rsp
  601e2d:	48 89 7d f0          	mov    %rdi,-0x10(%rbp)
  601e31:	48 89 75 f8          	mov    %rsi,-0x8(%rbp)
  601e35:	48 89 55 e0          	mov    %rdx,-0x20(%rbp)
  601e39:	48 89 4d e8          	mov    %rcx,-0x18(%rbp)
  601e3d:	f3 0f 7e 45 f0       	movq   -0x10(%rbp),%xmm0
  601e42:	f2 0f 59 45 e8       	mulsd  -0x18(%rbp),%xmm0
  601e47:	f3 0f 7e 4d f8       	movq   -0x8(%rbp),%xmm1
  601e4c:	f2 0f 59 4d e0       	mulsd  -0x20(%rbp),%xmm1
  601e51:	f2 0f 5c c1          	subsd  %xmm1,%xmm0
  601e55:	66 0f d6 45 d8       	movq   %xmm0,-0x28(%rbp)
  601e5a:	f3 0f 7e 45 d8       	movq   -0x28(%rbp),%xmm0
  601e5f:	c9                   	leave
  601e60:	c3                   	ret

0000000000601e61 <f64x2_perp_cw>:
  601e61:	55                   	push   %rbp
  601e62:	48 89 e5             	mov    %rsp,%rbp
  601e65:	48 81 ec 20 00 00 00 	sub    $0x20,%rsp
  601e6c:	48 89 7d f0          	mov    %rdi,-0x10(%rbp)
  601e70:	48 89 75 f8          	mov    %rsi,-0x8(%rbp)
  601e74:	f3 0f 7e 45 f8       	movq   -0x8(%rbp),%xmm0
  601e79:	48 8b 05 f8 3a 20 00 	mov    0x203af8(%rip),%rax        # 805978 <__mzerodf+0x2c0>
  601e80:	f3 0f 7e 08          	movq   (%rax),%xmm1
  601e84:	66 0f 57 c1          	xorpd  %xmm1,%xmm0
  601e88:	66 0f d6 45 e0       	movq   %xmm0,-0x20(%rbp)
  601e8d:	f3 0f 7e 45 f0       	movq   -0x10(%rbp),%xmm0
  601e92:	66 0f d6 45 e8       	movq   %xmm0,-0x18(%rbp)
  601e97:	48 8b 45 e0          	mov    -0x20(%rbp),%rax
  601e9b:	48 8b 55 e8          	mov    -0x18(%rbp),%rdx
  601e9f:	c9                   	leave
  601ea0:	c3                   	ret

0000000000601ea1 <f64x2_perp_ccw>:
  601ea1:	55                   	push   %rbp
  601ea2:	48 89 e5             	mov    %rsp,%rbp
  601ea5:	48 81 ec 20 00 00 00 	sub    $0x20,%rsp
  601eac:	48 89 7d f0          	mov    %rdi,-0x10(%rbp)
  601eb0:	48 89 75 f8          	mov    %rsi,-0x8(%rbp)
  601eb4:	f3 0f 7e 45 f8       	movq   -0x8(%rbp),%xmm0
  601eb9:	66 0f d6 45 e0       	movq   %xmm0,-0x20(%rbp)
  601ebe:	f3 0f 7e 45 f0       	movq   -0x10(%rbp),%xmm0
  601ec3:	48 8b 05 ae 3a 20 00 	mov    0x203aae(%rip),%rax        # 805978 <__mzerodf+0x2c0>
  601eca:	f3 0f 7e 08          	movq   (%rax),%xmm1
  601ece:	66 0f 57 c1          	xorpd  %xmm1,%xmm0
  601ed2:	66 0f d6 45 e8       	movq   %xmm0,-0x18(%rbp)
  601ed7:	48 8b 45 e0          	mov    -0x20(%rbp),%rax
  601edb:	48 8b 55 e8          	mov    -0x18(%rbp),%rdx
  601edf:	c9                   	leave
  601ee0:	c3                   	ret

0000000000601ee1 <f64x2_unit_perp>:
  601ee1:	55                   	push   %rbp
  601ee2:	48 89 e5             	mov    %rsp,%rbp
  601ee5:	48 81 ec 40 00 00 00 	sub    $0x40,%rsp
  601eec:	48 89 7d f0          	mov    %rdi,-0x10(%rbp)
  601ef0:	48 89 75 f8          	mov    %rsi,-0x8(%rbp)
  601ef4:	48 8b 45 f0          	mov    -0x10(%rbp),%rax
  601ef8:	48 8b 4d f8          	mov    -0x8(%rbp),%rcx
  601efc:	48 89 c7             	mov    %rax,%rdi
  601eff:	48 89 ce             	mov    %rcx,%rsi
  601f02:	e8 5b fc ff ff       	call   601b62 <f64x2_unit>
  601f07:	48 89 45 d0          	mov    %rax,-0x30(%rbp)
  601f0b:	48 89 55 d8          	mov    %rdx,-0x28(%rbp)
  601f0f:	48 8d 75 d0          	lea    -0x30(%rbp),%rsi
  601f13:	48 8d 7d e0          	lea    -0x20(%rbp),%rdi
  601f17:	48 a5                	movsq  (%rsi),(%rdi)
  601f19:	48 a5                	movsq  (%rsi),(%rdi)
  601f1b:	48 8b 45 e0          	mov    -0x20(%rbp),%rax
  601f1f:	48 8b 4d e8          	mov    -0x18(%rbp),%rcx
  601f23:	48 89 c7             	mov    %rax,%rdi
  601f26:	48 89 ce             	mov    %rcx,%rsi
  601f29:	e8 73 ff ff ff       	call   601ea1 <f64x2_perp_ccw>
  601f2e:	48 89 45 c0          	mov    %rax,-0x40(%rbp)
  601f32:	48 89 55 c8          	mov    %rdx,-0x38(%rbp)
  601f36:	48 8d 75 c0          	lea    -0x40(%rbp),%rsi
  601f3a:	48 8d 7d e0          	lea    -0x20(%rbp),%rdi
  601f3e:	48 a5                	movsq  (%rsi),(%rdi)
  601f40:	48 a5                	movsq  (%rsi),(%rdi)
  601f42:	48 8b 45 e0          	mov    -0x20(%rbp),%rax
  601f46:	48 8b 55 e8          	mov    -0x18(%rbp),%rdx
  601f4a:	c9                   	leave
  601f4b:	c3                   	ret

0000000000601f4c <f64x2_reflect>:
  601f4c:	55                   	push   %rbp
  601f4d:	48 89 e5             	mov    %rsp,%rbp
  601f50:	48 81 ec 40 00 00 00 	sub    $0x40,%rsp
  601f57:	48 89 7d f0          	mov    %rdi,-0x10(%rbp)
  601f5b:	48 89 75 f8          	mov    %rsi,-0x8(%rbp)
  601f5f:	48 89 55 e0          	mov    %rdx,-0x20(%rbp)
  601f63:	48 89 4d e8          	mov    %rcx,-0x18(%rbp)
  601f67:	48 8d 05 52 36 20 00 	lea    0x203652(%rip),%rax        # 8055c0 <L.86>
  601f6e:	48 89 c7             	mov    %rax,%rdi
  601f71:	b8 00 00 00 00       	mov    $0x0,%eax
  601f76:	e8 f5 34 00 00       	call   605470 <printf@plt>
  601f7b:	48 8b 45 e0          	mov    -0x20(%rbp),%rax
  601f7f:	48 8b 4d e8          	mov    -0x18(%rbp),%rcx
  601f83:	49 89 c2             	mov    %rax,%r10
  601f86:	49 89 cb             	mov    %rcx,%r11
  601f89:	48 8b 45 f0          	mov    -0x10(%rbp),%rax
  601f8d:	48 8b 4d f8          	mov    -0x8(%rbp),%rcx
  601f91:	48 89 c7             	mov    %rax,%rdi
  601f94:	48 89 ce             	mov    %rcx,%rsi
  601f97:	4c 89 d2             	mov    %r10,%rdx
  601f9a:	4c 89 d9             	mov    %r11,%rcx
  601f9d:	e8 41 fe ff ff       	call   601de3 <f64x2_dot>
  601fa2:	66 0f d6 45 d8       	movq   %xmm0,-0x28(%rbp)
  601fa7:	f3 0f 7e 05 41 36 20 	movq   0x203641(%rip),%xmm0        # 8055f0 <L.87>
  601fae:	00 
  601faf:	f2 0f 59 45 d8       	mulsd  -0x28(%rbp),%xmm0
  601fb4:	f2 0f 59 45 e0       	mulsd  -0x20(%rbp),%xmm0
  601fb9:	f3 0f 7e 4d f0       	movq   -0x10(%rbp),%xmm1
  601fbe:	f2 0f 5c c8          	subsd  %xmm0,%xmm1
  601fc2:	66 0f d6 4d c8       	movq   %xmm1,-0x38(%rbp)
  601fc7:	f3 0f 7e 05 29 36 20 	movq   0x203629(%rip),%xmm0        # 8055f8 <L.88>
  601fce:	00 
  601fcf:	f2 0f 59 45 d8       	mulsd  -0x28(%rbp),%xmm0
  601fd4:	f2 0f 59 45 e8       	mulsd  -0x18(%rbp),%xmm0
  601fd9:	f3 0f 7e 4d f8       	movq   -0x8(%rbp),%xmm1
  601fde:	f2 0f 5c c8          	subsd  %xmm0,%xmm1
  601fe2:	66 0f d6 4d d0       	movq   %xmm1,-0x30(%rbp)
  601fe7:	48 8b 45 c8          	mov    -0x38(%rbp),%rax
  601feb:	48 8b 55 d0          	mov    -0x30(%rbp),%rdx
  601fef:	c9                   	leave
  601ff0:	c3                   	ret

0000000000601ff1 <str8_alloc>:
  601ff1:	55                   	push   %rbp
  601ff2:	48 89 e5             	mov    %rsp,%rbp
  601ff5:	48 81 ec 20 00 00 00 	sub    $0x20,%rsp
  601ffc:	48 89 7d f8          	mov    %rdi,-0x8(%rbp)
  602000:	48 b8 10 00 00 00 00 	movabs $0x10,%rax
  602007:	00 00 00 
  60200a:	49 89 c2             	mov    %rax,%r10
  60200d:	b8 00 00 00 00       	mov    $0x0,%eax
  602012:	48 89 c6             	mov    %rax,%rsi
  602015:	48 8d 45 e8          	lea    -0x18(%rbp),%rax
  602019:	48 89 c7             	mov    %rax,%rdi
  60201c:	4c 89 d2             	mov    %r10,%rdx
  60201f:	b8 00 00 00 00       	mov    $0x0,%eax
  602024:	e8 c7 33 00 00       	call   6053f0 <memset@plt>
  602029:	48 8b 45 f8          	mov    -0x8(%rbp),%rax
  60202d:	48 89 45 e8          	mov    %rax,-0x18(%rbp)
  602031:	48 8b 45 f8          	mov    -0x8(%rbp),%rax
  602035:	48 89 c7             	mov    %rax,%rdi
  602038:	e8 43 34 00 00       	call   605480 <malloc@plt>
  60203d:	48 89 45 f0          	mov    %rax,-0x10(%rbp)
  602041:	48 8b 45 e8          	mov    -0x18(%rbp),%rax
  602045:	48 8b 55 f0          	mov    -0x10(%rbp),%rdx
  602049:	c9                   	leave
  60204a:	c3                   	ret

000000000060204b <execute_create>:
  60204b:	55                   	push   %rbp
  60204c:	48 89 e5             	mov    %rsp,%rbp
  60204f:	48 81 ec 30 00 00 00 	sub    $0x30,%rsp
  602056:	48 89 7d f0          	mov    %rdi,-0x10(%rbp)
  60205a:	48 89 75 f8          	mov    %rsi,-0x8(%rbp)
  60205e:	48 89 55 e8          	mov    %rdx,-0x18(%rbp)
  602062:	48 89 4d e0          	mov    %rcx,-0x20(%rbp)
  602066:	e8 25 34 00 00       	call   605490 <fork@plt>
  60206b:	89 45 dc             	mov    %eax,-0x24(%rbp)
  60206e:	8b 45 dc             	mov    -0x24(%rbp),%eax
  602071:	83 f8 00             	cmp    $0x0,%eax
  602074:	0f 85 05 00 00 00    	jne    60207f <execute_create+0x34>
  60207a:	e9 27 00 00 00       	jmp    6020a6 <execute_create+0x5b>
  60207f:	8b 45 dc             	mov    -0x24(%rbp),%eax
  602082:	83 f8 00             	cmp    $0x0,%eax
  602085:	0f 8d 1b 00 00 00    	jge    6020a6 <execute_create+0x5b>
  60208b:	48 8b 45 f8          	mov    -0x8(%rbp),%rax
  60208f:	48 89 c6             	mov    %rax,%rsi
  602092:	48 8d 05 67 35 20 00 	lea    0x203567(%rip),%rax        # 805600 <L.94>
  602099:	48 89 c7             	mov    %rax,%rdi
  60209c:	b8 00 00 00 00       	mov    $0x0,%eax
  6020a1:	e8 ca 33 00 00       	call   605470 <printf@plt>
  6020a6:	b8 00 00 00 00       	mov    $0x0,%eax
  6020ab:	c9                   	leave
  6020ac:	c3                   	ret

00000000006020ad <execute_join>:
  6020ad:	55                   	push   %rbp
  6020ae:	48 89 e5             	mov    %rsp,%rbp
  6020b1:	48 81 ec 10 00 00 00 	sub    $0x10,%rsp
  6020b8:	48 89 7d f8          	mov    %rdi,-0x8(%rbp)
  6020bc:	b8 00 00 00 00       	mov    $0x0,%eax
  6020c1:	49 89 c2             	mov    %rax,%r10
  6020c4:	48 b8 00 00 00 00 00 	movabs $0x0,%rax
  6020cb:	00 00 00 
  6020ce:	48 89 c6             	mov    %rax,%rsi
  6020d1:	8b 45 f8             	mov    -0x8(%rbp),%eax
  6020d4:	48 89 c7             	mov    %rax,%rdi
  6020d7:	4c 89 d2             	mov    %r10,%rdx
  6020da:	e8 c1 33 00 00       	call   6054a0 <waitpid@plt>
  6020df:	c9                   	leave
  6020e0:	c3                   	ret

00000000006020e1 <get_time_ns>:
  6020e1:	55                   	push   %rbp
  6020e2:	48 89 e5             	mov    %rsp,%rbp
  6020e5:	48 81 ec 10 00 00 00 	sub    $0x10,%rsp
  6020ec:	48 8d 45 f0          	lea    -0x10(%rbp),%rax
  6020f0:	48 89 c6             	mov    %rax,%rsi
  6020f3:	b8 00 00 00 00       	mov    $0x0,%eax
  6020f8:	48 89 c7             	mov    %rax,%rdi
  6020fb:	e8 b0 33 00 00       	call   6054b0 <clock_gettime@plt>
  602100:	48 8b 45 f0          	mov    -0x10(%rbp),%rax
  602104:	48 b9 00 ca 9a 3b 00 	movabs $0x3b9aca00,%rcx
  60210b:	00 00 00 
  60210e:	48 0f af c1          	imul   %rcx,%rax
  602112:	48 8b 4d f8          	mov    -0x8(%rbp),%rcx
  602116:	48 01 c1             	add    %rax,%rcx
  602119:	48 89 c8             	mov    %rcx,%rax
  60211c:	c9                   	leave
  60211d:	c3                   	ret

000000000060211e <get_time_us>:
  60211e:	55                   	push   %rbp
  60211f:	48 89 e5             	mov    %rsp,%rbp
  602122:	48 81 ec 10 00 00 00 	sub    $0x10,%rsp
  602129:	48 8d 45 f0          	lea    -0x10(%rbp),%rax
  60212d:	48 89 c6             	mov    %rax,%rsi
  602130:	b8 00 00 00 00       	mov    $0x0,%eax
  602135:	48 89 c7             	mov    %rax,%rdi
  602138:	e8 73 33 00 00       	call   6054b0 <clock_gettime@plt>
  60213d:	48 8b 45 f8          	mov    -0x8(%rbp),%rax
  602141:	48 b9 e8 03 00 00 00 	movabs $0x3e8,%rcx
  602148:	00 00 00 
  60214b:	48 31 d2             	xor    %rdx,%rdx
  60214e:	48 f7 f1             	div    %rcx
  602151:	48 8b 4d f0          	mov    -0x10(%rbp),%rcx
  602155:	48 ba 40 42 0f 00 00 	movabs $0xf4240,%rdx
  60215c:	00 00 00 
  60215f:	48 0f af ca          	imul   %rdx,%rcx
  602163:	48 01 c8             	add    %rcx,%rax
  602166:	c9                   	leave
  602167:	c3                   	ret

0000000000602168 <get_time_ms>:
  602168:	55                   	push   %rbp
  602169:	48 89 e5             	mov    %rsp,%rbp
  60216c:	48 81 ec 10 00 00 00 	sub    $0x10,%rsp
  602173:	48 8d 45 f0          	lea    -0x10(%rbp),%rax
  602177:	48 89 c6             	mov    %rax,%rsi
  60217a:	b8 00 00 00 00       	mov    $0x0,%eax
  60217f:	48 89 c7             	mov    %rax,%rdi
  602182:	e8 29 33 00 00       	call   6054b0 <clock_gettime@plt>
  602187:	48 8b 45 f8          	mov    -0x8(%rbp),%rax
  60218b:	48 b9 40 42 0f 00 00 	movabs $0xf4240,%rcx
  602192:	00 00 00 
  602195:	48 31 d2             	xor    %rdx,%rdx
  602198:	48 f7 f1             	div    %rcx
  60219b:	48 8b 4d f0          	mov    -0x10(%rbp),%rcx
  60219f:	48 ba e8 03 00 00 00 	movabs $0x3e8,%rdx
  6021a6:	00 00 00 
  6021a9:	48 0f af ca          	imul   %rdx,%rcx
  6021ad:	48 01 c8             	add    %rcx,%rax
  6021b0:	c9                   	leave
  6021b1:	c3                   	ret

00000000006021b2 <get_time_s>:
  6021b2:	55                   	push   %rbp
  6021b3:	48 89 e5             	mov    %rsp,%rbp
  6021b6:	48 81 ec 10 00 00 00 	sub    $0x10,%rsp
  6021bd:	48 8d 45 f0          	lea    -0x10(%rbp),%rax
  6021c1:	48 89 c6             	mov    %rax,%rsi
  6021c4:	b8 00 00 00 00       	mov    $0x0,%eax
  6021c9:	48 89 c7             	mov    %rax,%rdi
  6021cc:	e8 df 32 00 00       	call   6054b0 <clock_gettime@plt>
  6021d1:	48 8b 45 f0          	mov    -0x10(%rbp),%rax
  6021d5:	c9                   	leave
  6021d6:	c3                   	ret

00000000006021d7 <reset_arena>:
  6021d7:	55                   	push   %rbp
  6021d8:	48 89 e5             	mov    %rsp,%rbp
  6021db:	48 81 ec 10 00 00 00 	sub    $0x10,%rsp
  6021e2:	48 89 7d f8          	mov    %rdi,-0x8(%rbp)
  6021e6:	48 8b 45 f8          	mov    -0x8(%rbp),%rax
  6021ea:	48 b9 10 00 00 00 00 	movabs $0x10,%rcx
  6021f1:	00 00 00 
  6021f4:	48 89 08             	mov    %rcx,(%rax)
  6021f7:	c9                   	leave
  6021f8:	c3                   	ret

00000000006021f9 <init_arena>:
  6021f9:	55                   	push   %rbp
  6021fa:	48 89 e5             	mov    %rsp,%rbp
  6021fd:	48 81 ec 20 00 00 00 	sub    $0x20,%rsp
  602204:	48 89 7d f8          	mov    %rdi,-0x8(%rbp)
  602208:	48 89 75 f0          	mov    %rsi,-0x10(%rbp)
  60220c:	48 8b 45 f8          	mov    -0x8(%rbp),%rax
  602210:	48 89 45 e8          	mov    %rax,-0x18(%rbp)
  602214:	48 8b 45 e8          	mov    -0x18(%rbp),%rax
  602218:	48 83 c0 08          	add    $0x8,%rax
  60221c:	48 8b 4d f0          	mov    -0x10(%rbp),%rcx
  602220:	48 89 08             	mov    %rcx,(%rax)
  602223:	48 8b 45 e8          	mov    -0x18(%rbp),%rax
  602227:	48 89 c7             	mov    %rax,%rdi
  60222a:	e8 a8 ff ff ff       	call   6021d7 <reset_arena>
  60222f:	48 8b 45 e8          	mov    -0x18(%rbp),%rax
  602233:	c9                   	leave
  602234:	c3                   	ret

0000000000602235 <allocate_arena>:
  602235:	55                   	push   %rbp
  602236:	48 89 e5             	mov    %rsp,%rbp
  602239:	48 81 ec 20 00 00 00 	sub    $0x20,%rsp
  602240:	48 89 7d f8          	mov    %rdi,-0x8(%rbp)
  602244:	48 8b 45 f8          	mov    -0x8(%rbp),%rax
  602248:	48 81 c0 ff 0f 00 00 	add    $0xfff,%rax
  60224f:	48 81 e0 00 f0 ff ff 	and    $0xfffffffffffff000,%rax
  602256:	48 89 45 f8          	mov    %rax,-0x8(%rbp)
  60225a:	48 8b 45 f8          	mov    -0x8(%rbp),%rax
  60225e:	48 89 c7             	mov    %rax,%rdi
  602261:	e8 1a 32 00 00       	call   605480 <malloc@plt>
  602266:	48 89 45 f0          	mov    %rax,-0x10(%rbp)
  60226a:	48 8b 45 f8          	mov    -0x8(%rbp),%rax
  60226e:	48 89 c6             	mov    %rax,%rsi
  602271:	48 8b 45 f0          	mov    -0x10(%rbp),%rax
  602275:	48 89 c7             	mov    %rax,%rdi
  602278:	e8 7c ff ff ff       	call   6021f9 <init_arena>
  60227d:	48 89 45 e8          	mov    %rax,-0x18(%rbp)
  602281:	48 8b 45 e8          	mov    -0x18(%rbp),%rax
  602285:	c9                   	leave
  602286:	c3                   	ret

0000000000602287 <free_arena>:
  602287:	55                   	push   %rbp
  602288:	48 89 e5             	mov    %rsp,%rbp
  60228b:	48 81 ec 10 00 00 00 	sub    $0x10,%rsp
  602292:	48 89 7d f8          	mov    %rdi,-0x8(%rbp)
  602296:	48 8b 45 f8          	mov    -0x8(%rbp),%rax
  60229a:	48 89 c7             	mov    %rax,%rdi
  60229d:	e8 1e 32 00 00       	call   6054c0 <free@plt>
  6022a2:	c9                   	leave
  6022a3:	c3                   	ret

00000000006022a4 <arena_push>:
  6022a4:	55                   	push   %rbp
  6022a5:	48 89 e5             	mov    %rsp,%rbp
  6022a8:	48 81 ec 30 00 00 00 	sub    $0x30,%rsp
  6022af:	48 89 7d f8          	mov    %rdi,-0x8(%rbp)
  6022b3:	48 89 75 f0          	mov    %rsi,-0x10(%rbp)
  6022b7:	48 89 55 e8          	mov    %rdx,-0x18(%rbp)
  6022bb:	48 8b 45 f8          	mov    -0x8(%rbp),%rax
  6022bf:	48 8b 4d f8          	mov    -0x8(%rbp),%rcx
  6022c3:	48 8b 00             	mov    (%rax),%rax
  6022c6:	48 01 c1             	add    %rax,%rcx
  6022c9:	48 89 4d e0          	mov    %rcx,-0x20(%rbp)
  6022cd:	48 8b 45 f8          	mov    -0x8(%rbp),%rax
  6022d1:	48 89 45 d8          	mov    %rax,-0x28(%rbp)
  6022d5:	48 8b 00             	mov    (%rax),%rax
  6022d8:	48 8b 4d e8          	mov    -0x18(%rbp),%rcx
  6022dc:	48 01 c8             	add    %rcx,%rax
  6022df:	48 8b 4d d8          	mov    -0x28(%rbp),%rcx
  6022e3:	48 89 01             	mov    %rax,(%rcx)
  6022e6:	8b 45 f0             	mov    -0x10(%rbp),%eax
  6022e9:	83 f8 00             	cmp    $0x0,%eax
  6022ec:	0f 84 22 00 00 00    	je     602314 <arena_push+0x70>
  6022f2:	48 b8 00 00 00 00 00 	movabs $0x0,%rax
  6022f9:	00 00 00 
  6022fc:	49 89 c2             	mov    %rax,%r10
  6022ff:	8b 45 e8             	mov    -0x18(%rbp),%eax
  602302:	48 89 c6             	mov    %rax,%rsi
  602305:	48 8b 45 e0          	mov    -0x20(%rbp),%rax
  602309:	48 89 c7             	mov    %rax,%rdi
  60230c:	4c 89 d2             	mov    %r10,%rdx
  60230f:	e8 dc 30 00 00       	call   6053f0 <memset@plt>
  602314:	48 8b 45 e0          	mov    -0x20(%rbp),%rax
  602318:	c9                   	leave
  602319:	c3                   	ret

000000000060231a <arena_push_aligned>:
  60231a:	55                   	push   %rbp
  60231b:	48 89 e5             	mov    %rsp,%rbp
  60231e:	48 81 ec 30 00 00 00 	sub    $0x30,%rsp
  602325:	48 89 7d f8          	mov    %rdi,-0x8(%rbp)
  602329:	48 89 75 f0          	mov    %rsi,-0x10(%rbp)
  60232d:	48 89 55 e8          	mov    %rdx,-0x18(%rbp)
  602331:	48 8b 45 f8          	mov    -0x8(%rbp),%rax
  602335:	48 8b 4d f8          	mov    -0x8(%rbp),%rcx
  602339:	48 8b 55 e8          	mov    -0x18(%rbp),%rdx
  60233d:	48 83 ea 01          	sub    $0x1,%rdx
  602341:	48 8b 09             	mov    (%rcx),%rcx
  602344:	48 01 d1             	add    %rdx,%rcx
  602347:	48 8b 55 e8          	mov    -0x18(%rbp),%rdx
  60234b:	48 83 ea 01          	sub    $0x1,%rdx
  60234f:	48 83 f2 ff          	xor    $0xffffffffffffffff,%rdx
  602353:	48 21 d1             	and    %rdx,%rcx
  602356:	48 89 08             	mov    %rcx,(%rax)
  602359:	48 8b 45 f8          	mov    -0x8(%rbp),%rax
  60235d:	48 8b 4d f8          	mov    -0x8(%rbp),%rcx
  602361:	48 8b 00             	mov    (%rax),%rax
  602364:	48 01 c1             	add    %rax,%rcx
  602367:	48 89 4d e0          	mov    %rcx,-0x20(%rbp)
  60236b:	48 8b 45 f8          	mov    -0x8(%rbp),%rax
  60236f:	48 89 45 d8          	mov    %rax,-0x28(%rbp)
  602373:	48 8b 00             	mov    (%rax),%rax
  602376:	48 8b 4d f0          	mov    -0x10(%rbp),%rcx
  60237a:	48 01 c8             	add    %rcx,%rax
  60237d:	48 8b 4d d8          	mov    -0x28(%rbp),%rcx
  602381:	48 89 01             	mov    %rax,(%rcx)
  602384:	48 8b 45 e0          	mov    -0x20(%rbp),%rax
  602388:	c9                   	leave
  602389:	c3                   	ret

000000000060238a <arena_pop>:
  60238a:	55                   	push   %rbp
  60238b:	48 89 e5             	mov    %rsp,%rbp
  60238e:	48 81 ec 20 00 00 00 	sub    $0x20,%rsp
  602395:	48 89 7d f8          	mov    %rdi,-0x8(%rbp)
  602399:	48 89 75 f0          	mov    %rsi,-0x10(%rbp)
  60239d:	48 8b 45 f8          	mov    -0x8(%rbp),%rax
  6023a1:	48 89 45 e8          	mov    %rax,-0x18(%rbp)
  6023a5:	48 8b 00             	mov    (%rax),%rax
  6023a8:	48 8b 4d f0          	mov    -0x10(%rbp),%rcx
  6023ac:	48 29 c8             	sub    %rcx,%rax
  6023af:	48 8b 4d e8          	mov    -0x18(%rbp),%rcx
  6023b3:	48 89 01             	mov    %rax,(%rcx)
  6023b6:	c9                   	leave
  6023b7:	c3                   	ret

00000000006023b8 <arena_set>:
  6023b8:	55                   	push   %rbp
  6023b9:	48 89 e5             	mov    %rsp,%rbp
  6023bc:	48 81 ec 10 00 00 00 	sub    $0x10,%rsp
  6023c3:	48 89 7d f8          	mov    %rdi,-0x8(%rbp)
  6023c7:	48 89 75 f0          	mov    %rsi,-0x10(%rbp)
  6023cb:	48 8b 45 f8          	mov    -0x8(%rbp),%rax
  6023cf:	48 8b 4d f0          	mov    -0x10(%rbp),%rcx
  6023d3:	48 89 08             	mov    %rcx,(%rax)
  6023d6:	c9                   	leave
  6023d7:	c3                   	ret

00000000006023d8 <create_mutex>:
  6023d8:	55                   	push   %rbp
  6023d9:	48 89 e5             	mov    %rsp,%rbp
  6023dc:	48 81 ec 30 00 00 00 	sub    $0x30,%rsp
  6023e3:	48 89 7d f8          	mov    %rdi,-0x8(%rbp)
  6023e7:	48 b8 00 00 00 00 00 	movabs $0x0,%rax
  6023ee:	00 00 00 
  6023f1:	48 89 c6             	mov    %rax,%rsi
  6023f4:	48 8d 45 d0          	lea    -0x30(%rbp),%rax
  6023f8:	48 89 c7             	mov    %rax,%rdi
  6023fb:	e8 d0 30 00 00       	call   6054d0 <pthread_mutex_init@plt>
  602400:	48 8b 45 f8          	mov    -0x8(%rbp),%rax
  602404:	48 8d 75 d0          	lea    -0x30(%rbp),%rsi
  602408:	48 89 c7             	mov    %rax,%rdi
  60240b:	b9 05 00 00 00       	mov    $0x5,%ecx
  602410:	f3 48 a5             	rep movsq (%rsi),(%rdi)
  602413:	c9                   	leave
  602414:	c3                   	ret

0000000000602415 <destroy_mutex>:
  602415:	55                   	push   %rbp
  602416:	48 89 e5             	mov    %rsp,%rbp
  602419:	48 81 ec 00 00 00 00 	sub    $0x0,%rsp
  602420:	48 8d 45 10          	lea    0x10(%rbp),%rax
  602424:	48 89 c7             	mov    %rax,%rdi
  602427:	e8 b4 30 00 00       	call   6054e0 <pthread_mutex_destroy@plt>
  60242c:	c9                   	leave
  60242d:	c3                   	ret

000000000060242e <lock_mutex>:
  60242e:	55                   	push   %rbp
  60242f:	48 89 e5             	mov    %rsp,%rbp
  602432:	48 81 ec 10 00 00 00 	sub    $0x10,%rsp
  602439:	48 89 7d f8          	mov    %rdi,-0x8(%rbp)
  60243d:	48 8b 45 f8          	mov    -0x8(%rbp),%rax
  602441:	48 89 45 f0          	mov    %rax,-0x10(%rbp)
  602445:	48 8b 45 f0          	mov    -0x10(%rbp),%rax
  602449:	48 89 c7             	mov    %rax,%rdi
  60244c:	e8 9f 30 00 00       	call   6054f0 <pthread_mutex_lock@plt>
  602451:	c9                   	leave
  602452:	c3                   	ret

0000000000602453 <unlock_mutex>:
  602453:	55                   	push   %rbp
  602454:	48 89 e5             	mov    %rsp,%rbp
  602457:	48 81 ec 10 00 00 00 	sub    $0x10,%rsp
  60245e:	48 89 7d f8          	mov    %rdi,-0x8(%rbp)
  602462:	48 8b 45 f8          	mov    -0x8(%rbp),%rax
  602466:	48 89 45 f0          	mov    %rax,-0x10(%rbp)
  60246a:	48 8b 45 f0          	mov    -0x10(%rbp),%rax
  60246e:	48 89 c7             	mov    %rax,%rdi
  602471:	e8 8a 30 00 00       	call   605500 <pthread_mutex_unlock@plt>
  602476:	c9                   	leave
  602477:	c3                   	ret

0000000000602478 <create_cond>:
  602478:	55                   	push   %rbp
  602479:	48 89 e5             	mov    %rsp,%rbp
  60247c:	48 81 ec 40 00 00 00 	sub    $0x40,%rsp
  602483:	48 89 7d f8          	mov    %rdi,-0x8(%rbp)
  602487:	48 b8 00 00 00 00 00 	movabs $0x0,%rax
  60248e:	00 00 00 
  602491:	48 89 c6             	mov    %rax,%rsi
  602494:	48 8d 45 c0          	lea    -0x40(%rbp),%rax
  602498:	48 89 c7             	mov    %rax,%rdi
  60249b:	e8 70 30 00 00       	call   605510 <pthread_cond_init@plt>
  6024a0:	48 8b 45 f8          	mov    -0x8(%rbp),%rax
  6024a4:	48 8d 75 c0          	lea    -0x40(%rbp),%rsi
  6024a8:	48 89 c7             	mov    %rax,%rdi
  6024ab:	b9 07 00 00 00       	mov    $0x7,%ecx
  6024b0:	f3 48 a5             	rep movsq (%rsi),(%rdi)
  6024b3:	c9                   	leave
  6024b4:	c3                   	ret

00000000006024b5 <destroy_cond>:
  6024b5:	55                   	push   %rbp
  6024b6:	48 89 e5             	mov    %rsp,%rbp
  6024b9:	48 81 ec 00 00 00 00 	sub    $0x0,%rsp
  6024c0:	48 8d 45 10          	lea    0x10(%rbp),%rax
  6024c4:	48 89 c7             	mov    %rax,%rdi
  6024c7:	e8 54 30 00 00       	call   605520 <pthread_cond_destroy@plt>
  6024cc:	c9                   	leave
  6024cd:	c3                   	ret

00000000006024ce <broadcast_cond>:
  6024ce:	55                   	push   %rbp
  6024cf:	48 89 e5             	mov    %rsp,%rbp
  6024d2:	48 81 ec 10 00 00 00 	sub    $0x10,%rsp
  6024d9:	48 89 7d f8          	mov    %rdi,-0x8(%rbp)
  6024dd:	48 8b 45 f8          	mov    -0x8(%rbp),%rax
  6024e1:	48 89 45 f0          	mov    %rax,-0x10(%rbp)
  6024e5:	48 8b 45 f0          	mov    -0x10(%rbp),%rax
  6024e9:	48 89 c7             	mov    %rax,%rdi
  6024ec:	e8 3f 30 00 00       	call   605530 <pthread_cond_broadcast@plt>
  6024f1:	c9                   	leave
  6024f2:	c3                   	ret

00000000006024f3 <signal_cond>:
  6024f3:	55                   	push   %rbp
  6024f4:	48 89 e5             	mov    %rsp,%rbp
  6024f7:	48 81 ec 10 00 00 00 	sub    $0x10,%rsp
  6024fe:	48 89 7d f8          	mov    %rdi,-0x8(%rbp)
  602502:	48 8b 45 f8          	mov    -0x8(%rbp),%rax
  602506:	48 89 45 f0          	mov    %rax,-0x10(%rbp)
  60250a:	48 8b 45 f0          	mov    -0x10(%rbp),%rax
  60250e:	48 89 c7             	mov    %rax,%rdi
  602511:	e8 2a 30 00 00       	call   605540 <pthread_cond_signal@plt>
  602516:	c9                   	leave
  602517:	c3                   	ret

0000000000602518 <wait_cond>:
  602518:	55                   	push   %rbp
  602519:	48 89 e5             	mov    %rsp,%rbp
  60251c:	48 81 ec 20 00 00 00 	sub    $0x20,%rsp
  602523:	48 89 7d f8          	mov    %rdi,-0x8(%rbp)
  602527:	48 89 75 f0          	mov    %rsi,-0x10(%rbp)
  60252b:	48 8b 45 f8          	mov    -0x8(%rbp),%rax
  60252f:	48 8b 4d f0          	mov    -0x10(%rbp),%rcx
  602533:	48 89 45 e8          	mov    %rax,-0x18(%rbp)
  602537:	48 89 4d e0          	mov    %rcx,-0x20(%rbp)
  60253b:	48 8b 45 e0          	mov    -0x20(%rbp),%rax
  60253f:	48 89 c6             	mov    %rax,%rsi
  602542:	48 8b 45 e8          	mov    -0x18(%rbp),%rax
  602546:	48 89 c7             	mov    %rax,%rdi
  602549:	e8 02 30 00 00       	call   605550 <pthread_cond_wait@plt>
  60254e:	c9                   	leave
  60254f:	c3                   	ret

0000000000602550 <create_semaphore>:
  602550:	55                   	push   %rbp
  602551:	48 89 e5             	mov    %rsp,%rbp
  602554:	48 81 ec 60 00 00 00 	sub    $0x60,%rsp
  60255b:	48 89 7d f8          	mov    %rdi,-0x8(%rbp)
  60255f:	48 89 75 f0          	mov    %rsi,-0x10(%rbp)
  602563:	48 8d 45 b8          	lea    -0x48(%rbp),%rax
  602567:	48 89 45 b0          	mov    %rax,-0x50(%rbp)
  60256b:	48 8b 45 f0          	mov    -0x10(%rbp),%rax
  60256f:	48 89 45 a8          	mov    %rax,-0x58(%rbp)
  602573:	b8 05 00 00 00       	mov    $0x5,%eax
  602578:	49 89 c2             	mov    %rax,%r10
  60257b:	48 8b 45 a8          	mov    -0x58(%rbp),%rax
  60257f:	48 89 c6             	mov    %rax,%rsi
  602582:	48 8b 45 b0          	mov    -0x50(%rbp),%rax
  602586:	48 89 c7             	mov    %rax,%rdi
  602589:	4c 89 d2             	mov    %r10,%rdx
  60258c:	b8 00 00 00 00       	mov    $0x0,%eax
  602591:	e8 34 25 00 00       	call   604aca <__atomic_store_8>
  602596:	48 b8 00 00 00 00 00 	movabs $0x0,%rax
  60259d:	00 00 00 
  6025a0:	48 89 c6             	mov    %rax,%rsi
  6025a3:	48 8d 45 c0          	lea    -0x40(%rbp),%rax
  6025a7:	48 89 c7             	mov    %rax,%rdi
  6025aa:	e8 61 2f 00 00       	call   605510 <pthread_cond_init@plt>
  6025af:	48 8b 45 f8          	mov    -0x8(%rbp),%rax
  6025b3:	48 8d 75 b8          	lea    -0x48(%rbp),%rsi
  6025b7:	48 89 c7             	mov    %rax,%rdi
  6025ba:	b9 07 00 00 00       	mov    $0x7,%ecx
  6025bf:	f3 48 a5             	rep movsq (%rsi),(%rdi)
  6025c2:	c9                   	leave
  6025c3:	c3                   	ret

00000000006025c4 <destroy_semaphore>:
  6025c4:	55                   	push   %rbp
  6025c5:	48 89 e5             	mov    %rsp,%rbp
  6025c8:	48 81 ec 00 00 00 00 	sub    $0x0,%rsp
  6025cf:	48 8d 45 18          	lea    0x18(%rbp),%rax
  6025d3:	48 89 c7             	mov    %rax,%rdi
  6025d6:	e8 45 2f 00 00       	call   605520 <pthread_cond_destroy@plt>
  6025db:	c9                   	leave
  6025dc:	c3                   	ret

00000000006025dd <binary_signal_semaphore>:
  6025dd:	55                   	push   %rbp
  6025de:	48 89 e5             	mov    %rsp,%rbp
  6025e1:	48 81 ec 20 00 00 00 	sub    $0x20,%rsp
  6025e8:	48 89 7d f8          	mov    %rdi,-0x8(%rbp)
  6025ec:	48 8b 45 f8          	mov    -0x8(%rbp),%rax
  6025f0:	48 89 45 f0          	mov    %rax,-0x10(%rbp)
  6025f4:	48 b8 01 00 00 00 00 	movabs $0x1,%rax
  6025fb:	00 00 00 
  6025fe:	48 89 45 e8          	mov    %rax,-0x18(%rbp)
  602602:	b8 05 00 00 00       	mov    $0x5,%eax
  602607:	49 89 c2             	mov    %rax,%r10
  60260a:	48 8b 45 e8          	mov    -0x18(%rbp),%rax
  60260e:	48 89 c6             	mov    %rax,%rsi
  602611:	48 8b 45 f0          	mov    -0x10(%rbp),%rax
  602615:	48 89 c7             	mov    %rax,%rdi
  602618:	4c 89 d2             	mov    %r10,%rdx
  60261b:	b8 00 00 00 00       	mov    $0x0,%eax
  602620:	e8 a5 24 00 00       	call   604aca <__atomic_store_8>
  602625:	48 8b 45 f8          	mov    -0x8(%rbp),%rax
  602629:	48 83 c0 08          	add    $0x8,%rax
  60262d:	48 89 45 e0          	mov    %rax,-0x20(%rbp)
  602631:	48 8b 45 e0          	mov    -0x20(%rbp),%rax
  602635:	48 89 c7             	mov    %rax,%rdi
  602638:	e8 f3 2e 00 00       	call   605530 <pthread_cond_broadcast@plt>
  60263d:	b8 01 00 00 00       	mov    $0x1,%eax
  602642:	c9                   	leave
  602643:	c3                   	ret

0000000000602644 <binary_reset_semaphore>:
  602644:	55                   	push   %rbp
  602645:	48 89 e5             	mov    %rsp,%rbp
  602648:	48 81 ec 20 00 00 00 	sub    $0x20,%rsp
  60264f:	48 89 7d f8          	mov    %rdi,-0x8(%rbp)
  602653:	48 8b 45 f8          	mov    -0x8(%rbp),%rax
  602657:	48 89 45 f0          	mov    %rax,-0x10(%rbp)
  60265b:	48 b8 00 00 00 00 00 	movabs $0x0,%rax
  602662:	00 00 00 
  602665:	48 89 45 e8          	mov    %rax,-0x18(%rbp)
  602669:	b8 05 00 00 00       	mov    $0x5,%eax
  60266e:	49 89 c2             	mov    %rax,%r10
  602671:	48 8b 45 e8          	mov    -0x18(%rbp),%rax
  602675:	48 89 c6             	mov    %rax,%rsi
  602678:	48 8b 45 f0          	mov    -0x10(%rbp),%rax
  60267c:	48 89 c7             	mov    %rax,%rdi
  60267f:	4c 89 d2             	mov    %r10,%rdx
  602682:	b8 00 00 00 00       	mov    $0x0,%eax
  602687:	e8 3e 24 00 00       	call   604aca <__atomic_store_8>
  60268c:	c9                   	leave
  60268d:	c3                   	ret

000000000060268e <binary_wait_semaphore>:
  60268e:	55                   	push   %rbp
  60268f:	48 89 e5             	mov    %rsp,%rbp
  602692:	48 81 ec 30 00 00 00 	sub    $0x30,%rsp
  602699:	48 89 7d f8          	mov    %rdi,-0x8(%rbp)
  60269d:	48 89 75 f0          	mov    %rsi,-0x10(%rbp)
  6026a1:	48 8b 45 f8          	mov    -0x8(%rbp),%rax
  6026a5:	48 89 45 e8          	mov    %rax,-0x18(%rbp)
  6026a9:	b8 05 00 00 00       	mov    $0x5,%eax
  6026ae:	48 89 c6             	mov    %rax,%rsi
  6026b1:	48 8b 45 e8          	mov    -0x18(%rbp),%rax
  6026b5:	48 89 c7             	mov    %rax,%rdi
  6026b8:	b8 00 00 00 00       	mov    $0x0,%eax
  6026bd:	e8 39 24 00 00       	call   604afb <__atomic_load_8>
  6026c2:	48 89 45 e0          	mov    %rax,-0x20(%rbp)
  6026c6:	48 8b 45 e0          	mov    -0x20(%rbp),%rax
  6026ca:	48 83 f8 00          	cmp    $0x0,%rax
  6026ce:	0f 85 29 00 00 00    	jne    6026fd <binary_wait_semaphore+0x6f>
  6026d4:	48 8b 45 f8          	mov    -0x8(%rbp),%rax
  6026d8:	48 83 c0 08          	add    $0x8,%rax
  6026dc:	48 8b 4d f0          	mov    -0x10(%rbp),%rcx
  6026e0:	48 89 45 d8          	mov    %rax,-0x28(%rbp)
  6026e4:	48 89 4d d0          	mov    %rcx,-0x30(%rbp)
  6026e8:	48 8b 45 d0          	mov    -0x30(%rbp),%rax
  6026ec:	48 89 c6             	mov    %rax,%rsi
  6026ef:	48 8b 45 d8          	mov    -0x28(%rbp),%rax
  6026f3:	48 89 c7             	mov    %rax,%rdi
  6026f6:	e8 55 2e 00 00       	call   605550 <pthread_cond_wait@plt>
  6026fb:	eb a4                	jmp    6026a1 <binary_wait_semaphore+0x13>
  6026fd:	c9                   	leave
  6026fe:	c3                   	ret

00000000006026ff <empty_thread_work>:
  6026ff:	55                   	push   %rbp
  602700:	48 89 e5             	mov    %rsp,%rbp
  602703:	48 81 ec 10 00 00 00 	sub    $0x10,%rsp
  60270a:	48 89 7d f8          	mov    %rdi,-0x8(%rbp)
  60270e:	48 8d 05 01 2f 20 00 	lea    0x202f01(%rip),%rax        # 805616 <L.95>
  602715:	48 89 c7             	mov    %rax,%rdi
  602718:	b8 00 00 00 00       	mov    $0x0,%eax
  60271d:	e8 4e 2d 00 00       	call   605470 <printf@plt>
  602722:	48 b8 00 00 00 00 00 	movabs $0x0,%rax
  602729:	00 00 00 
  60272c:	c9                   	leave
  60272d:	c3                   	ret

000000000060272e <thread_wrapper>:
  60272e:	55                   	push   %rbp
  60272f:	48 89 e5             	mov    %rsp,%rbp
  602732:	48 81 ec 40 00 00 00 	sub    $0x40,%rsp
  602739:	48 89 7d f8          	mov    %rdi,-0x8(%rbp)
  60273d:	48 8b 45 f8          	mov    -0x8(%rbp),%rax
  602741:	48 89 45 f0          	mov    %rax,-0x10(%rbp)
  602745:	48 8b 45 f0          	mov    -0x10(%rbp),%rax
  602749:	48 81 c0 90 00 00 00 	add    $0x90,%rax
  602750:	48 89 45 e8          	mov    %rax,-0x18(%rbp)
  602754:	48 8b 45 e8          	mov    -0x18(%rbp),%rax
  602758:	48 89 c7             	mov    %rax,%rdi
  60275b:	e8 ce fc ff ff       	call   60242e <lock_mutex>
  602760:	48 8b 45 f0          	mov    -0x10(%rbp),%rax
  602764:	48 83 c0 58          	add    $0x58,%rax
  602768:	48 89 45 e8          	mov    %rax,-0x18(%rbp)
  60276c:	48 8b 45 e8          	mov    -0x18(%rbp),%rax
  602770:	48 89 c7             	mov    %rax,%rdi
  602773:	e8 65 fe ff ff       	call   6025dd <binary_signal_semaphore>
  602778:	48 8b 45 f0          	mov    -0x10(%rbp),%rax
  60277c:	48 83 c0 20          	add    $0x20,%rax
  602780:	48 8b 4d f0          	mov    -0x10(%rbp),%rcx
  602784:	48 81 c1 90 00 00 00 	add    $0x90,%rcx
  60278b:	48 89 45 e8          	mov    %rax,-0x18(%rbp)
  60278f:	48 89 4d e0          	mov    %rcx,-0x20(%rbp)
  602793:	48 8b 45 e0          	mov    -0x20(%rbp),%rax
  602797:	48 89 c6             	mov    %rax,%rsi
  60279a:	48 8b 45 e8          	mov    -0x18(%rbp),%rax
  60279e:	48 89 c7             	mov    %rax,%rdi
  6027a1:	e8 e8 fe ff ff       	call   60268e <binary_wait_semaphore>
  6027a6:	48 8b 45 f0          	mov    -0x10(%rbp),%rax
  6027aa:	48 83 c0 20          	add    $0x20,%rax
  6027ae:	48 89 45 e8          	mov    %rax,-0x18(%rbp)
  6027b2:	48 8b 45 e8          	mov    -0x18(%rbp),%rax
  6027b6:	48 89 c7             	mov    %rax,%rdi
  6027b9:	e8 86 fe ff ff       	call   602644 <binary_reset_semaphore>
  6027be:	48 8b 45 f0          	mov    -0x10(%rbp),%rax
  6027c2:	48 81 c0 90 00 00 00 	add    $0x90,%rax
  6027c9:	48 89 45 e8          	mov    %rax,-0x18(%rbp)
  6027cd:	48 8b 45 e8          	mov    -0x18(%rbp),%rax
  6027d1:	48 89 c7             	mov    %rax,%rdi
  6027d4:	e8 7a fc ff ff       	call   602453 <unlock_mutex>
  6027d9:	48 8b 45 f0          	mov    -0x10(%rbp),%rax
  6027dd:	48 81 c0 b8 00 00 00 	add    $0xb8,%rax
  6027e4:	48 89 45 d0          	mov    %rax,-0x30(%rbp)
  6027e8:	b8 05 00 00 00       	mov    $0x5,%eax
  6027ed:	48 89 c6             	mov    %rax,%rsi
  6027f0:	48 8b 45 d0          	mov    -0x30(%rbp),%rax
  6027f4:	48 89 c7             	mov    %rax,%rdi
  6027f7:	b8 00 00 00 00       	mov    $0x0,%eax
  6027fc:	e8 fa 22 00 00       	call   604afb <__atomic_load_8>
  602801:	48 89 45 c8          	mov    %rax,-0x38(%rbp)
  602805:	48 8b 45 c8          	mov    -0x38(%rbp),%rax
  602809:	48 89 45 d8          	mov    %rax,-0x28(%rbp)
  60280d:	48 b8 00 00 00 00 00 	movabs $0x0,%rax
  602814:	00 00 00 
  602817:	48 89 45 c0          	mov    %rax,-0x40(%rbp)
  60281b:	48 8b 45 d8          	mov    -0x28(%rbp),%rax
  60281f:	48 83 f8 00          	cmp    $0x0,%rax
  602823:	0f 84 17 00 00 00    	je     602840 <thread_wrapper+0x112>
  602829:	48 8b 45 f0          	mov    -0x10(%rbp),%rax
  60282d:	48 89 c7             	mov    %rax,%rdi
  602830:	4c 8b 5d d8          	mov    -0x28(%rbp),%r11
  602834:	41 ff d3             	call   *%r11
  602837:	48 89 45 c0          	mov    %rax,-0x40(%rbp)
  60283b:	e9 10 00 00 00       	jmp    602850 <thread_wrapper+0x122>
  602840:	48 8b 45 f0          	mov    -0x10(%rbp),%rax
  602844:	48 89 c7             	mov    %rax,%rdi
  602847:	e8 b3 fe ff ff       	call   6026ff <empty_thread_work>
  60284c:	48 89 45 c0          	mov    %rax,-0x40(%rbp)
  602850:	48 8b 45 c0          	mov    -0x40(%rbp),%rax
  602854:	48 83 f8 00          	cmp    $0x0,%rax
  602858:	0f 84 05 00 00 00    	je     602863 <thread_wrapper+0x135>
  60285e:	e9 05 00 00 00       	jmp    602868 <thread_wrapper+0x13a>
  602863:	e9 dd fe ff ff       	jmp    602745 <thread_wrapper+0x17>
  602868:	48 8d 05 b3 2d 20 00 	lea    0x202db3(%rip),%rax        # 805622 <L.96>
  60286f:	48 89 c7             	mov    %rax,%rdi
  602872:	b8 00 00 00 00       	mov    $0x0,%eax
  602877:	e8 f4 2b 00 00       	call   605470 <printf@plt>
  60287c:	48 b8 00 00 00 00 00 	movabs $0x0,%rax
  602883:	00 00 00 
  602886:	c9                   	leave
  602887:	c3                   	ret

0000000000602888 <allocate_thread>:
  602888:	55                   	push   %rbp
  602889:	48 89 e5             	mov    %rsp,%rbp
  60288c:	48 81 ec d0 00 00 00 	sub    $0xd0,%rsp
  602893:	48 89 7d f8          	mov    %rdi,-0x8(%rbp)
  602897:	48 89 75 f0          	mov    %rsi,-0x10(%rbp)
  60289b:	48 b8 c0 00 00 00 00 	movabs $0xc0,%rax
  6028a2:	00 00 00 
  6028a5:	49 89 c2             	mov    %rax,%r10
  6028a8:	b8 01 00 00 00       	mov    $0x1,%eax
  6028ad:	48 89 c6             	mov    %rax,%rsi
  6028b0:	48 8b 45 f8          	mov    -0x8(%rbp),%rax
  6028b4:	48 89 c7             	mov    %rax,%rdi
  6028b7:	4c 89 d2             	mov    %r10,%rdx
  6028ba:	e8 e5 f9 ff ff       	call   6022a4 <arena_push>
  6028bf:	48 89 45 e8          	mov    %rax,-0x18(%rbp)
  6028c3:	b8 00 00 00 00       	mov    $0x0,%eax
  6028c8:	89 45 e4             	mov    %eax,-0x1c(%rbp)
  6028cb:	8b 45 e4             	mov    -0x1c(%rbp),%eax
  6028ce:	83 f8 02             	cmp    $0x2,%eax
  6028d1:	0f 83 66 00 00 00    	jae    60293d <allocate_thread+0xb5>
  6028d7:	e9 0d 00 00 00       	jmp    6028e9 <allocate_thread+0x61>
  6028dc:	8b 45 e4             	mov    -0x1c(%rbp),%eax
  6028df:	89 c1                	mov    %eax,%ecx
  6028e1:	83 c0 01             	add    $0x1,%eax
  6028e4:	89 45 e4             	mov    %eax,-0x1c(%rbp)
  6028e7:	eb e2                	jmp    6028cb <allocate_thread+0x43>
  6028e9:	48 8b 45 e8          	mov    -0x18(%rbp),%rax
  6028ed:	48 83 c0 10          	add    $0x10,%rax
  6028f1:	8b 4d e4             	mov    -0x1c(%rbp),%ecx
  6028f4:	48 c1 e1 03          	shl    $0x3,%rcx
  6028f8:	48 01 c8             	add    %rcx,%rax
  6028fb:	48 89 45 d8          	mov    %rax,-0x28(%rbp)
  6028ff:	48 8b 45 f0          	mov    -0x10(%rbp),%rax
  602903:	49 89 c2             	mov    %rax,%r10
  602906:	b8 00 00 00 00       	mov    $0x0,%eax
  60290b:	48 89 c6             	mov    %rax,%rsi
  60290e:	48 8b 45 f8          	mov    -0x8(%rbp),%rax
  602912:	48 89 c7             	mov    %rax,%rdi
  602915:	4c 89 d2             	mov    %r10,%rdx
  602918:	e8 87 f9 ff ff       	call   6022a4 <arena_push>
  60291d:	48 89 45 d0          	mov    %rax,-0x30(%rbp)
  602921:	48 8b 45 f0          	mov    -0x10(%rbp),%rax
  602925:	48 89 c6             	mov    %rax,%rsi
  602928:	48 8b 45 d0          	mov    -0x30(%rbp),%rax
  60292c:	48 89 c7             	mov    %rax,%rdi
  60292f:	e8 c5 f8 ff ff       	call   6021f9 <init_arena>
  602934:	48 8b 4d d8          	mov    -0x28(%rbp),%rcx
  602938:	48 89 01             	mov    %rax,(%rcx)
  60293b:	eb 9f                	jmp    6028dc <allocate_thread+0x54>
  60293d:	48 8b 45 e8          	mov    -0x18(%rbp),%rax
  602941:	48 83 c0 20          	add    $0x20,%rax
  602945:	48 89 45 d8          	mov    %rax,-0x28(%rbp)
  602949:	48 b8 00 00 00 00 00 	movabs $0x0,%rax
  602950:	00 00 00 
  602953:	48 89 c6             	mov    %rax,%rsi
  602956:	48 8d 45 98          	lea    -0x68(%rbp),%rax
  60295a:	48 89 c7             	mov    %rax,%rdi
  60295d:	e8 ee fb ff ff       	call   602550 <create_semaphore>
  602962:	48 8d 75 98          	lea    -0x68(%rbp),%rsi
  602966:	48 8b 7d d8          	mov    -0x28(%rbp),%rdi
  60296a:	b9 07 00 00 00       	mov    $0x7,%ecx
  60296f:	f3 48 a5             	rep movsq (%rsi),(%rdi)
  602972:	48 8b 45 e8          	mov    -0x18(%rbp),%rax
  602976:	48 83 c0 58          	add    $0x58,%rax
  60297a:	48 89 45 d8          	mov    %rax,-0x28(%rbp)
  60297e:	48 b8 00 00 00 00 00 	movabs $0x0,%rax
  602985:	00 00 00 
  602988:	48 89 c6             	mov    %rax,%rsi
  60298b:	48 8d 85 60 ff ff ff 	lea    -0xa0(%rbp),%rax
  602992:	48 89 c7             	mov    %rax,%rdi
  602995:	e8 b6 fb ff ff       	call   602550 <create_semaphore>
  60299a:	48 8d b5 60 ff ff ff 	lea    -0xa0(%rbp),%rsi
  6029a1:	48 8b 7d d8          	mov    -0x28(%rbp),%rdi
  6029a5:	b9 07 00 00 00       	mov    $0x7,%ecx
  6029aa:	f3 48 a5             	rep movsq (%rsi),(%rdi)
  6029ad:	48 8b 45 e8          	mov    -0x18(%rbp),%rax
  6029b1:	48 81 c0 90 00 00 00 	add    $0x90,%rax
  6029b8:	48 89 45 d8          	mov    %rax,-0x28(%rbp)
  6029bc:	48 8d 85 38 ff ff ff 	lea    -0xc8(%rbp),%rax
  6029c3:	48 89 c7             	mov    %rax,%rdi
  6029c6:	b8 00 00 00 00       	mov    $0x0,%eax
  6029cb:	e8 08 fa ff ff       	call   6023d8 <create_mutex>
  6029d0:	48 8d b5 38 ff ff ff 	lea    -0xc8(%rbp),%rsi
  6029d7:	48 8b 7d d8          	mov    -0x28(%rbp),%rdi
  6029db:	b9 05 00 00 00       	mov    $0x5,%ecx
  6029e0:	f3 48 a5             	rep movsq (%rsi),(%rdi)
  6029e3:	48 8b 45 e8          	mov    -0x18(%rbp),%rax
  6029e7:	48 83 c0 08          	add    $0x8,%rax
  6029eb:	48 b9 00 00 00 00 00 	movabs $0x0,%rcx
  6029f2:	00 00 00 
  6029f5:	48 89 08             	mov    %rcx,(%rax)
  6029f8:	48 8b 45 e8          	mov    -0x18(%rbp),%rax
  6029fc:	c9                   	leave
  6029fd:	c3                   	ret

00000000006029fe <create_thread>:
  6029fe:	55                   	push   %rbp
  6029ff:	48 89 e5             	mov    %rsp,%rbp
  602a02:	48 81 ec 60 00 00 00 	sub    $0x60,%rsp
  602a09:	48 89 7d f8          	mov    %rdi,-0x8(%rbp)
  602a0d:	48 89 75 f0          	mov    %rsi,-0x10(%rbp)
  602a11:	48 89 55 e8          	mov    %rdx,-0x18(%rbp)
  602a15:	48 8b 45 f0          	mov    -0x10(%rbp),%rax
  602a19:	48 89 c6             	mov    %rax,%rsi
  602a1c:	48 8b 45 f8          	mov    -0x8(%rbp),%rax
  602a20:	48 89 c7             	mov    %rax,%rdi
  602a23:	e8 60 fe ff ff       	call   602888 <allocate_thread>
  602a28:	48 89 45 e0          	mov    %rax,-0x20(%rbp)
  602a2c:	48 8d 45 a8          	lea    -0x58(%rbp),%rax
  602a30:	48 89 c7             	mov    %rax,%rdi
  602a33:	e8 28 2b 00 00       	call   605560 <pthread_attr_init@plt>
  602a38:	48 8b 45 e8          	mov    -0x18(%rbp),%rax
  602a3c:	48 89 c6             	mov    %rax,%rsi
  602a3f:	48 8d 45 a8          	lea    -0x58(%rbp),%rax
  602a43:	48 89 c7             	mov    %rax,%rdi
  602a46:	e8 25 2b 00 00       	call   605570 <pthread_attr_setstacksize@plt>
  602a4b:	48 8b 45 e0          	mov    -0x20(%rbp),%rax
  602a4f:	48 89 45 a0          	mov    %rax,-0x60(%rbp)
  602a53:	48 8b 45 e0          	mov    -0x20(%rbp),%rax
  602a57:	49 89 c3             	mov    %rax,%r11
  602a5a:	48 8b 05 1f 2f 20 00 	mov    0x202f1f(%rip),%rax        # 805980 <thread_wrapper+0x203252>
  602a61:	49 89 c2             	mov    %rax,%r10
  602a64:	48 8d 45 a8          	lea    -0x58(%rbp),%rax
  602a68:	48 89 c6             	mov    %rax,%rsi
  602a6b:	48 8b 45 a0          	mov    -0x60(%rbp),%rax
  602a6f:	48 89 c7             	mov    %rax,%rdi
  602a72:	4c 89 d2             	mov    %r10,%rdx
  602a75:	4c 89 d9             	mov    %r11,%rcx
  602a78:	e8 03 2b 00 00       	call   605580 <pthread_create@plt>
  602a7d:	83 f8 00             	cmp    $0x0,%eax
  602a80:	0f 84 14 00 00 00    	je     602a9a <create_thread+0x9c>
  602a86:	48 8d 05 9d 2b 20 00 	lea    0x202b9d(%rip),%rax        # 80562a <L.97>
  602a8d:	48 89 c7             	mov    %rax,%rdi
  602a90:	b8 00 00 00 00       	mov    $0x0,%eax
  602a95:	e8 d6 29 00 00       	call   605470 <printf@plt>
  602a9a:	48 8d 45 a8          	lea    -0x58(%rbp),%rax
  602a9e:	48 89 c7             	mov    %rax,%rdi
  602aa1:	e8 ea 2a 00 00       	call   605590 <pthread_attr_destroy@plt>
  602aa6:	48 8b 45 e0          	mov    -0x20(%rbp),%rax
  602aaa:	c9                   	leave
  602aab:	c3                   	ret

0000000000602aac <wait_for_thread_idle>:
  602aac:	55                   	push   %rbp
  602aad:	48 89 e5             	mov    %rsp,%rbp
  602ab0:	48 81 ec 20 00 00 00 	sub    $0x20,%rsp
  602ab7:	48 89 7d f8          	mov    %rdi,-0x8(%rbp)
  602abb:	48 8b 45 f8          	mov    -0x8(%rbp),%rax
  602abf:	48 81 c0 90 00 00 00 	add    $0x90,%rax
  602ac6:	48 89 45 f0          	mov    %rax,-0x10(%rbp)
  602aca:	48 8b 45 f0          	mov    -0x10(%rbp),%rax
  602ace:	48 89 c7             	mov    %rax,%rdi
  602ad1:	e8 58 f9 ff ff       	call   60242e <lock_mutex>
  602ad6:	48 8b 45 f8          	mov    -0x8(%rbp),%rax
  602ada:	48 83 c0 58          	add    $0x58,%rax
  602ade:	48 8b 4d f8          	mov    -0x8(%rbp),%rcx
  602ae2:	48 81 c1 90 00 00 00 	add    $0x90,%rcx
  602ae9:	48 89 45 f0          	mov    %rax,-0x10(%rbp)
  602aed:	48 89 4d e8          	mov    %rcx,-0x18(%rbp)
  602af1:	48 8b 45 e8          	mov    -0x18(%rbp),%rax
  602af5:	48 89 c6             	mov    %rax,%rsi
  602af8:	48 8b 45 f0          	mov    -0x10(%rbp),%rax
  602afc:	48 89 c7             	mov    %rax,%rdi
  602aff:	e8 8a fb ff ff       	call   60268e <binary_wait_semaphore>
  602b04:	48 8b 45 f8          	mov    -0x8(%rbp),%rax
  602b08:	48 83 c0 58          	add    $0x58,%rax
  602b0c:	48 89 45 f0          	mov    %rax,-0x10(%rbp)
  602b10:	48 8b 45 f0          	mov    -0x10(%rbp),%rax
  602b14:	48 89 c7             	mov    %rax,%rdi
  602b17:	e8 28 fb ff ff       	call   602644 <binary_reset_semaphore>
  602b1c:	48 8b 45 f8          	mov    -0x8(%rbp),%rax
  602b20:	48 81 c0 90 00 00 00 	add    $0x90,%rax
  602b27:	48 89 45 f0          	mov    %rax,-0x10(%rbp)
  602b2b:	48 8b 45 f0          	mov    -0x10(%rbp),%rax
  602b2f:	48 89 c7             	mov    %rax,%rdi
  602b32:	e8 1c f9 ff ff       	call   602453 <unlock_mutex>
  602b37:	c9                   	leave
  602b38:	c3                   	ret

0000000000602b39 <begin_thread_work>:
  602b39:	55                   	push   %rbp
  602b3a:	48 89 e5             	mov    %rsp,%rbp
  602b3d:	48 81 ec 30 00 00 00 	sub    $0x30,%rsp
  602b44:	48 89 7d f8          	mov    %rdi,-0x8(%rbp)
  602b48:	48 89 75 f0          	mov    %rsi,-0x10(%rbp)
  602b4c:	48 8b 45 f8          	mov    -0x8(%rbp),%rax
  602b50:	48 81 c0 90 00 00 00 	add    $0x90,%rax
  602b57:	48 89 45 e8          	mov    %rax,-0x18(%rbp)
  602b5b:	48 8b 45 e8          	mov    -0x18(%rbp),%rax
  602b5f:	48 89 c7             	mov    %rax,%rdi
  602b62:	e8 c7 f8 ff ff       	call   60242e <lock_mutex>
  602b67:	48 8b 45 f8          	mov    -0x8(%rbp),%rax
  602b6b:	48 83 c0 20          	add    $0x20,%rax
  602b6f:	48 89 45 e8          	mov    %rax,-0x18(%rbp)
  602b73:	48 8b 45 e8          	mov    -0x18(%rbp),%rax
  602b77:	48 89 c7             	mov    %rax,%rdi
  602b7a:	e8 5e fa ff ff       	call   6025dd <binary_signal_semaphore>
  602b7f:	48 8b 45 f8          	mov    -0x8(%rbp),%rax
  602b83:	48 81 c0 b8 00 00 00 	add    $0xb8,%rax
  602b8a:	48 89 45 e0          	mov    %rax,-0x20(%rbp)
  602b8e:	48 8b 45 f0          	mov    -0x10(%rbp),%rax
  602b92:	48 89 45 d8          	mov    %rax,-0x28(%rbp)
  602b96:	b8 05 00 00 00       	mov    $0x5,%eax
  602b9b:	49 89 c2             	mov    %rax,%r10
  602b9e:	48 8b 45 d8          	mov    -0x28(%rbp),%rax
  602ba2:	48 89 c6             	mov    %rax,%rsi
  602ba5:	48 8b 45 e0          	mov    -0x20(%rbp),%rax
  602ba9:	48 89 c7             	mov    %rax,%rdi
  602bac:	4c 89 d2             	mov    %r10,%rdx
  602baf:	b8 00 00 00 00       	mov    $0x0,%eax
  602bb4:	e8 11 1f 00 00       	call   604aca <__atomic_store_8>
  602bb9:	48 8b 45 f8          	mov    -0x8(%rbp),%rax
  602bbd:	48 81 c0 90 00 00 00 	add    $0x90,%rax
  602bc4:	48 89 45 e8          	mov    %rax,-0x18(%rbp)
  602bc8:	48 8b 45 e8          	mov    -0x18(%rbp),%rax
  602bcc:	48 89 c7             	mov    %rax,%rdi
  602bcf:	e8 7f f8 ff ff       	call   602453 <unlock_mutex>
  602bd4:	b8 00 00 00 00       	mov    $0x0,%eax
  602bd9:	c9                   	leave
  602bda:	c3                   	ret

0000000000602bdb <init>:
  602bdb:	55                   	push   %rbp
  602bdc:	48 89 e5             	mov    %rsp,%rbp
  602bdf:	48 81 ec 10 00 00 00 	sub    $0x10,%rsp
  602be6:	48 b8 00 00 00 00 10 	movabs $0x1000000000,%rax
  602bed:	00 00 00 
  602bf0:	48 89 c7             	mov    %rax,%rdi
  602bf3:	e8 3d f6 ff ff       	call   602235 <allocate_arena>
  602bf8:	48 89 05 99 2d 40 00 	mov    %rax,0x402d99(%rip)        # a05998 <main_arena>
  602bff:	48 b8 00 00 00 04 00 	movabs $0x4000000,%rax
  602c06:	00 00 00 
  602c09:	48 89 c6             	mov    %rax,%rsi
  602c0c:	48 8b 05 85 2d 40 00 	mov    0x402d85(%rip),%rax        # a05998 <main_arena>
  602c13:	48 89 c7             	mov    %rax,%rdi
  602c16:	e8 6d fc ff ff       	call   602888 <allocate_thread>
  602c1b:	48 89 05 7e 2d 40 00 	mov    %rax,0x402d7e(%rip)        # a059a0 <main_thread>
  602c22:	8b 05 6c 2d 40 00    	mov    0x402d6c(%rip),%eax        # a05994 <max_thread_count>
  602c28:	48 b9 c0 00 00 00 00 	movabs $0xc0,%rcx
  602c2f:	00 00 00 
  602c32:	48 0f af c1          	imul   %rcx,%rax
  602c36:	48 89 45 f8          	mov    %rax,-0x8(%rbp)
  602c3a:	48 8b 45 f8          	mov    -0x8(%rbp),%rax
  602c3e:	49 89 c2             	mov    %rax,%r10
  602c41:	b8 00 00 00 00       	mov    $0x0,%eax
  602c46:	48 89 c6             	mov    %rax,%rsi
  602c49:	48 8b 05 48 2d 40 00 	mov    0x402d48(%rip),%rax        # a05998 <main_arena>
  602c50:	48 89 c7             	mov    %rax,%rdi
  602c53:	4c 89 d2             	mov    %r10,%rdx
  602c56:	e8 49 f6 ff ff       	call   6022a4 <arena_push>
  602c5b:	48 89 05 46 2d 40 00 	mov    %rax,0x402d46(%rip)        # a059a8 <thread_table>
  602c62:	c9                   	leave
  602c63:	c3                   	ret

0000000000602c64 <cleanup>:
  602c64:	55                   	push   %rbp
  602c65:	48 89 e5             	mov    %rsp,%rbp
  602c68:	48 81 ec 00 00 00 00 	sub    $0x0,%rsp
  602c6f:	48 8b 05 22 2d 40 00 	mov    0x402d22(%rip),%rax        # a05998 <main_arena>
  602c76:	48 89 c7             	mov    %rax,%rdi
  602c79:	e8 09 f6 ff ff       	call   602287 <free_arena>
  602c7e:	c9                   	leave
  602c7f:	c3                   	ret

0000000000602c80 <main>:
  602c80:	55                   	push   %rbp
  602c81:	48 89 e5             	mov    %rsp,%rbp
  602c84:	48 81 ec 00 00 00 00 	sub    $0x0,%rsp
  602c8b:	b8 00 00 00 00       	mov    $0x0,%eax
  602c90:	e8 46 ff ff ff       	call   602bdb <init>
  602c95:	b8 00 00 00 00       	mov    $0x0,%eax
  602c9a:	e8 c5 ff ff ff       	call   602c64 <cleanup>
  602c9f:	b8 00 00 00 00       	mov    $0x0,%eax
  602ca4:	c9                   	leave
  602ca5:	c3                   	ret
	...

0000000000602ca8 <__floatundisf>:
  602ca8:	55                   	push   %rbp
  602ca9:	48 89 e5             	mov    %rsp,%rbp
  602cac:	48 81 ec 20 00 00 00 	sub    $0x20,%rsp
  602cb3:	48 89 7d f8          	mov    %rdi,-0x8(%rbp)
  602cb7:	48 8b 45 f8          	mov    -0x8(%rbp),%rax
  602cbb:	48 89 45 f0          	mov    %rax,-0x10(%rbp)
  602cbf:	8b 45 f4             	mov    -0xc(%rbp),%eax
  602cc2:	83 f8 00             	cmp    $0x0,%eax
  602cc5:	0f 8c 0e 00 00 00    	jl     602cd9 <__floatundisf+0x31>
  602ccb:	48 8b 45 f0          	mov    -0x10(%rbp),%rax
  602ccf:	f3 48 0f 2a c0       	cvtsi2ss %rax,%xmm0
  602cd4:	e9 37 00 00 00       	jmp    602d10 <__floatundisf+0x68>
  602cd9:	48 8b 45 f0          	mov    -0x10(%rbp),%rax
  602cdd:	50                   	push   %rax
  602cde:	df 2c 24             	fildll (%rsp)
  602ce1:	48 83 c4 08          	add    $0x8,%rsp
  602ce5:	d9 c0                	fld    %st(0)
  602ce7:	db 7d e0             	fstpt  -0x20(%rbp)
  602cea:	dd d8                	fstp   %st(0)
  602cec:	db 2d 6e 29 20 00    	fldt   0x20296e(%rip)        # 805660 <L.6>
  602cf2:	db 6d e0             	fldt   -0x20(%rbp)
  602cf5:	de c1                	faddp  %st,%st(1)
  602cf7:	d9 c0                	fld    %st(0)
  602cf9:	db 7d e0             	fstpt  -0x20(%rbp)
  602cfc:	dd d8                	fstp   %st(0)
  602cfe:	db 6d e0             	fldt   -0x20(%rbp)
  602d01:	d9 5c 24 f0          	fstps  -0x10(%rsp)
  602d05:	f3 0f 10 44 24 f0    	movss  -0x10(%rsp),%xmm0
  602d0b:	e9 00 00 00 00       	jmp    602d10 <__floatundisf+0x68>
  602d10:	c9                   	leave
  602d11:	c3                   	ret

0000000000602d12 <__floatundidf>:
  602d12:	55                   	push   %rbp
  602d13:	48 89 e5             	mov    %rsp,%rbp
  602d16:	48 81 ec 20 00 00 00 	sub    $0x20,%rsp
  602d1d:	48 89 7d f8          	mov    %rdi,-0x8(%rbp)
  602d21:	48 8b 45 f8          	mov    -0x8(%rbp),%rax
  602d25:	48 89 45 f0          	mov    %rax,-0x10(%rbp)
  602d29:	8b 45 f4             	mov    -0xc(%rbp),%eax
  602d2c:	83 f8 00             	cmp    $0x0,%eax
  602d2f:	0f 8c 0e 00 00 00    	jl     602d43 <__floatundidf+0x31>
  602d35:	48 8b 45 f0          	mov    -0x10(%rbp),%rax
  602d39:	f2 48 0f 2a c0       	cvtsi2sd %rax,%xmm0
  602d3e:	e9 37 00 00 00       	jmp    602d7a <__floatundidf+0x68>
  602d43:	48 8b 45 f0          	mov    -0x10(%rbp),%rax
  602d47:	50                   	push   %rax
  602d48:	df 2c 24             	fildll (%rsp)
  602d4b:	48 83 c4 08          	add    $0x8,%rsp
  602d4f:	d9 c0                	fld    %st(0)
  602d51:	db 7d e0             	fstpt  -0x20(%rbp)
  602d54:	dd d8                	fstp   %st(0)
  602d56:	db 2d 14 29 20 00    	fldt   0x202914(%rip)        # 805670 <L.7>
  602d5c:	db 6d e0             	fldt   -0x20(%rbp)
  602d5f:	de c1                	faddp  %st,%st(1)
  602d61:	d9 c0                	fld    %st(0)
  602d63:	db 7d e0             	fstpt  -0x20(%rbp)
  602d66:	dd d8                	fstp   %st(0)
  602d68:	db 6d e0             	fldt   -0x20(%rbp)
  602d6b:	dd 5c 24 f0          	fstpl  -0x10(%rsp)
  602d6f:	f2 0f 10 44 24 f0    	movsd  -0x10(%rsp),%xmm0
  602d75:	e9 00 00 00 00       	jmp    602d7a <__floatundidf+0x68>
  602d7a:	c9                   	leave
  602d7b:	c3                   	ret

0000000000602d7c <__floatundixf>:
  602d7c:	55                   	push   %rbp
  602d7d:	48 89 e5             	mov    %rsp,%rbp
  602d80:	48 81 ec 20 00 00 00 	sub    $0x20,%rsp
  602d87:	48 89 7d f8          	mov    %rdi,-0x8(%rbp)
  602d8b:	48 8b 45 f8          	mov    -0x8(%rbp),%rax
  602d8f:	48 89 45 f0          	mov    %rax,-0x10(%rbp)
  602d93:	8b 45 f4             	mov    -0xc(%rbp),%eax
  602d96:	83 f8 00             	cmp    $0x0,%eax
  602d99:	0f 8c 11 00 00 00    	jl     602db0 <__floatundixf+0x34>
  602d9f:	48 8b 45 f0          	mov    -0x10(%rbp),%rax
  602da3:	50                   	push   %rax
  602da4:	df 2c 24             	fildll (%rsp)
  602da7:	48 83 c4 08          	add    $0x8,%rsp
  602dab:	e9 2d 00 00 00       	jmp    602ddd <__floatundixf+0x61>
  602db0:	48 8b 45 f0          	mov    -0x10(%rbp),%rax
  602db4:	50                   	push   %rax
  602db5:	df 2c 24             	fildll (%rsp)
  602db8:	48 83 c4 08          	add    $0x8,%rsp
  602dbc:	d9 c0                	fld    %st(0)
  602dbe:	db 7d e0             	fstpt  -0x20(%rbp)
  602dc1:	dd d8                	fstp   %st(0)
  602dc3:	db 2d b7 28 20 00    	fldt   0x2028b7(%rip)        # 805680 <L.8>
  602dc9:	db 6d e0             	fldt   -0x20(%rbp)
  602dcc:	de c1                	faddp  %st,%st(1)
  602dce:	d9 c0                	fld    %st(0)
  602dd0:	db 7d e0             	fstpt  -0x20(%rbp)
  602dd3:	dd d8                	fstp   %st(0)
  602dd5:	db 6d e0             	fldt   -0x20(%rbp)
  602dd8:	e9 00 00 00 00       	jmp    602ddd <__floatundixf+0x61>
  602ddd:	c9                   	leave
  602dde:	c3                   	ret

0000000000602ddf <__fixunssfdi>:
  602ddf:	55                   	push   %rbp
  602de0:	48 89 e5             	mov    %rsp,%rbp
  602de3:	48 81 ec 20 00 00 00 	sub    $0x20,%rsp
  602dea:	66 0f d6 45 f8       	movq   %xmm0,-0x8(%rbp)
  602def:	66 0f 6e 45 f8       	movd   -0x8(%rbp),%xmm0
  602df4:	66 0f 7e 45 f4       	movd   %xmm0,-0xc(%rbp)
  602df9:	8b 45 f4             	mov    -0xc(%rbp),%eax
  602dfc:	83 f8 00             	cmp    $0x0,%eax
  602dff:	0f 85 0f 00 00 00    	jne    602e14 <__fixunssfdi+0x35>
  602e05:	48 b8 00 00 00 00 00 	movabs $0x0,%rax
  602e0c:	00 00 00 
  602e0f:	e9 cc 00 00 00       	jmp    602ee0 <__fixunssfdi+0x101>
  602e14:	8b 45 f4             	mov    -0xc(%rbp),%eax
  602e17:	c1 e8 17             	shr    $0x17,%eax
  602e1a:	81 e0 ff 00 00 00    	and    $0xff,%eax
  602e20:	83 e8 7e             	sub    $0x7e,%eax
  602e23:	83 e8 18             	sub    $0x18,%eax
  602e26:	89 45 f0             	mov    %eax,-0x10(%rbp)
  602e29:	8b 45 f4             	mov    -0xc(%rbp),%eax
  602e2c:	81 e0 ff ff 7f 00    	and    $0x7fffff,%eax
  602e32:	81 c8 00 00 80 00    	or     $0x800000,%eax
  602e38:	48 89 45 e8          	mov    %rax,-0x18(%rbp)
  602e3c:	8b 45 f0             	mov    -0x10(%rbp),%eax
  602e3f:	83 f8 29             	cmp    $0x29,%eax
  602e42:	0f 8c 0f 00 00 00    	jl     602e57 <__fixunssfdi+0x78>
  602e48:	48 b8 00 00 00 00 00 	movabs $0x8000000000000000,%rax
  602e4f:	00 00 80 
  602e52:	e9 89 00 00 00       	jmp    602ee0 <__fixunssfdi+0x101>
  602e57:	8b 45 f0             	mov    -0x10(%rbp),%eax
  602e5a:	83 f8 00             	cmp    $0x0,%eax
  602e5d:	0f 8c 13 00 00 00    	jl     602e76 <__fixunssfdi+0x97>
  602e63:	48 8b 45 e8          	mov    -0x18(%rbp),%rax
  602e67:	8b 4d f0             	mov    -0x10(%rbp),%ecx
  602e6a:	48 d3 e0             	shl    %cl,%rax
  602e6d:	48 89 45 e8          	mov    %rax,-0x18(%rbp)
  602e71:	e9 3f 00 00 00       	jmp    602eb5 <__fixunssfdi+0xd6>
  602e76:	8b 45 f0             	mov    -0x10(%rbp),%eax
  602e79:	83 f8 e9             	cmp    $0xffffffe9,%eax
  602e7c:	0f 8c 24 00 00 00    	jl     602ea6 <__fixunssfdi+0xc7>
  602e82:	b8 00 00 00 00       	mov    $0x0,%eax
  602e87:	8b 4d f0             	mov    -0x10(%rbp),%ecx
  602e8a:	29 c8                	sub    %ecx,%eax
  602e8c:	48 8b 4d e8          	mov    -0x18(%rbp),%rcx
  602e90:	48 89 4d e0          	mov    %rcx,-0x20(%rbp)
  602e94:	89 c1                	mov    %eax,%ecx
  602e96:	48 8b 45 e0          	mov    -0x20(%rbp),%rax
  602e9a:	48 d3 e8             	shr    %cl,%rax
  602e9d:	48 89 45 e8          	mov    %rax,-0x18(%rbp)
  602ea1:	e9 0f 00 00 00       	jmp    602eb5 <__fixunssfdi+0xd6>
  602ea6:	48 b8 00 00 00 00 00 	movabs $0x0,%rax
  602ead:	00 00 00 
  602eb0:	e9 2b 00 00 00       	jmp    602ee0 <__fixunssfdi+0x101>
  602eb5:	8b 45 f4             	mov    -0xc(%rbp),%eax
  602eb8:	81 e0 00 00 00 80    	and    $0x80000000,%eax
  602ebe:	83 f8 00             	cmp    $0x0,%eax
  602ec1:	0f 84 15 00 00 00    	je     602edc <__fixunssfdi+0xfd>
  602ec7:	48 b8 00 00 00 00 00 	movabs $0x0,%rax
  602ece:	00 00 00 
  602ed1:	48 8b 4d e8          	mov    -0x18(%rbp),%rcx
  602ed5:	48 29 c8             	sub    %rcx,%rax
  602ed8:	48 89 45 e8          	mov    %rax,-0x18(%rbp)
  602edc:	48 8b 45 e8          	mov    -0x18(%rbp),%rax
  602ee0:	c9                   	leave
  602ee1:	c3                   	ret

0000000000602ee2 <__fixsfdi>:
  602ee2:	55                   	push   %rbp
  602ee3:	48 89 e5             	mov    %rsp,%rbp
  602ee6:	48 81 ec 20 00 00 00 	sub    $0x20,%rsp
  602eed:	66 0f d6 45 f8       	movq   %xmm0,-0x8(%rbp)
  602ef2:	66 0f 6e 05 96 27 20 	movd   0x202796(%rip),%xmm0        # 805690 <L.9>
  602ef9:	00 
  602efa:	66 0f 6e 4d f8       	movd   -0x8(%rbp),%xmm1
  602eff:	0f 2f c8             	comiss %xmm0,%xmm1
  602f02:	b0 00                	mov    $0x0,%al
  602f04:	7a 03                	jp     602f09 <__fixsfdi+0x27>
  602f06:	0f 93 c0             	setae  %al
  602f09:	0f b6 c0             	movzbl %al,%eax
  602f0c:	89 45 ec             	mov    %eax,-0x14(%rbp)
  602f0f:	83 f8 00             	cmp    $0x0,%eax
  602f12:	0f 84 05 00 00 00    	je     602f1d <__fixsfdi+0x3b>
  602f18:	e9 18 00 00 00       	jmp    602f35 <__fixsfdi+0x53>
  602f1d:	66 0f 6e 45 f8       	movd   -0x8(%rbp),%xmm0
  602f22:	48 8b 05 47 2a 20 00 	mov    0x202a47(%rip),%rax        # 805970 <__mzerosf+0x2c0>
  602f29:	66 0f 6e 08          	movd   (%rax),%xmm1
  602f2d:	0f 57 c1             	xorps  %xmm1,%xmm0
  602f30:	e9 05 00 00 00       	jmp    602f3a <__fixsfdi+0x58>
  602f35:	66 0f 6e 45 f8       	movd   -0x8(%rbp),%xmm0
  602f3a:	66 0f 7e 45 e8       	movd   %xmm0,-0x18(%rbp)
  602f3f:	66 0f 6e 45 e8       	movd   -0x18(%rbp),%xmm0
  602f44:	e8 96 fe ff ff       	call   602ddf <__fixunssfdi>
  602f49:	48 89 45 f0          	mov    %rax,-0x10(%rbp)
  602f4d:	8b 45 ec             	mov    -0x14(%rbp),%eax
  602f50:	83 f8 00             	cmp    $0x0,%eax
  602f53:	0f 84 05 00 00 00    	je     602f5e <__fixsfdi+0x7c>
  602f59:	e9 16 00 00 00       	jmp    602f74 <__fixsfdi+0x92>
  602f5e:	48 b8 00 00 00 00 00 	movabs $0x0,%rax
  602f65:	00 00 00 
  602f68:	48 8b 4d f0          	mov    -0x10(%rbp),%rcx
  602f6c:	48 29 c8             	sub    %rcx,%rax
  602f6f:	e9 04 00 00 00       	jmp    602f78 <__fixsfdi+0x96>
  602f74:	48 8b 45 f0          	mov    -0x10(%rbp),%rax
  602f78:	c9                   	leave
  602f79:	c3                   	ret

0000000000602f7a <__fixunsdfdi>:
  602f7a:	55                   	push   %rbp
  602f7b:	48 89 e5             	mov    %rsp,%rbp
  602f7e:	48 81 ec 30 00 00 00 	sub    $0x30,%rsp
  602f85:	66 0f d6 45 f8       	movq   %xmm0,-0x8(%rbp)
  602f8a:	f3 0f 7e 45 f8       	movq   -0x8(%rbp),%xmm0
  602f8f:	66 0f d6 45 f0       	movq   %xmm0,-0x10(%rbp)
  602f94:	48 8b 45 f0          	mov    -0x10(%rbp),%rax
  602f98:	48 83 f8 00          	cmp    $0x0,%rax
  602f9c:	0f 85 0f 00 00 00    	jne    602fb1 <__fixunsdfdi+0x37>
  602fa2:	48 b8 00 00 00 00 00 	movabs $0x0,%rax
  602fa9:	00 00 00 
  602fac:	e9 de 00 00 00       	jmp    60308f <__fixunsdfdi+0x115>
  602fb1:	8b 45 f4             	mov    -0xc(%rbp),%eax
  602fb4:	c1 f8 14             	sar    $0x14,%eax
  602fb7:	81 e0 ff 07 00 00    	and    $0x7ff,%eax
  602fbd:	81 e8 fe 03 00 00    	sub    $0x3fe,%eax
  602fc3:	83 e8 35             	sub    $0x35,%eax
  602fc6:	89 45 ec             	mov    %eax,-0x14(%rbp)
  602fc9:	48 8b 45 f0          	mov    -0x10(%rbp),%rax
  602fcd:	48 b9 ff ff ff ff ff 	movabs $0xfffffffffffff,%rcx
  602fd4:	ff 0f 00 
  602fd7:	48 21 c8             	and    %rcx,%rax
  602fda:	48 b9 00 00 00 00 00 	movabs $0x10000000000000,%rcx
  602fe1:	00 10 00 
  602fe4:	48 09 c8             	or     %rcx,%rax
  602fe7:	48 89 45 e0          	mov    %rax,-0x20(%rbp)
  602feb:	8b 45 ec             	mov    -0x14(%rbp),%eax
  602fee:	83 f8 0c             	cmp    $0xc,%eax
  602ff1:	0f 8c 0f 00 00 00    	jl     603006 <__fixunsdfdi+0x8c>
  602ff7:	48 b8 00 00 00 00 00 	movabs $0x8000000000000000,%rax
  602ffe:	00 00 80 
  603001:	e9 89 00 00 00       	jmp    60308f <__fixunsdfdi+0x115>
  603006:	8b 45 ec             	mov    -0x14(%rbp),%eax
  603009:	83 f8 00             	cmp    $0x0,%eax
  60300c:	0f 8c 13 00 00 00    	jl     603025 <__fixunsdfdi+0xab>
  603012:	48 8b 45 e0          	mov    -0x20(%rbp),%rax
  603016:	8b 4d ec             	mov    -0x14(%rbp),%ecx
  603019:	48 d3 e0             	shl    %cl,%rax
  60301c:	48 89 45 e0          	mov    %rax,-0x20(%rbp)
  603020:	e9 3f 00 00 00       	jmp    603064 <__fixunsdfdi+0xea>
  603025:	8b 45 ec             	mov    -0x14(%rbp),%eax
  603028:	83 f8 cc             	cmp    $0xffffffcc,%eax
  60302b:	0f 8c 24 00 00 00    	jl     603055 <__fixunsdfdi+0xdb>
  603031:	b8 00 00 00 00       	mov    $0x0,%eax
  603036:	8b 4d ec             	mov    -0x14(%rbp),%ecx
  603039:	29 c8                	sub    %ecx,%eax
  60303b:	48 8b 4d e0          	mov    -0x20(%rbp),%rcx
  60303f:	48 89 4d d8          	mov    %rcx,-0x28(%rbp)
  603043:	89 c1                	mov    %eax,%ecx
  603045:	48 8b 45 d8          	mov    -0x28(%rbp),%rax
  603049:	48 d3 e8             	shr    %cl,%rax
  60304c:	48 89 45 e0          	mov    %rax,-0x20(%rbp)
  603050:	e9 0f 00 00 00       	jmp    603064 <__fixunsdfdi+0xea>
  603055:	48 b8 00 00 00 00 00 	movabs $0x0,%rax
  60305c:	00 00 00 
  60305f:	e9 2b 00 00 00       	jmp    60308f <__fixunsdfdi+0x115>
  603064:	8b 45 f4             	mov    -0xc(%rbp),%eax
  603067:	81 e0 00 00 00 80    	and    $0x80000000,%eax
  60306d:	83 f8 00             	cmp    $0x0,%eax
  603070:	0f 84 15 00 00 00    	je     60308b <__fixunsdfdi+0x111>
  603076:	48 b8 00 00 00 00 00 	movabs $0x0,%rax
  60307d:	00 00 00 
  603080:	48 8b 4d e0          	mov    -0x20(%rbp),%rcx
  603084:	48 29 c8             	sub    %rcx,%rax
  603087:	48 89 45 e0          	mov    %rax,-0x20(%rbp)
  60308b:	48 8b 45 e0          	mov    -0x20(%rbp),%rax
  60308f:	c9                   	leave
  603090:	c3                   	ret

0000000000603091 <__fixdfdi>:
  603091:	55                   	push   %rbp
  603092:	48 89 e5             	mov    %rsp,%rbp
  603095:	48 81 ec 20 00 00 00 	sub    $0x20,%rsp
  60309c:	66 0f d6 45 f8       	movq   %xmm0,-0x8(%rbp)
  6030a1:	f3 0f 7e 05 ef 25 20 	movq   0x2025ef(%rip),%xmm0        # 805698 <L.10>
  6030a8:	00 
  6030a9:	f3 0f 7e 4d f8       	movq   -0x8(%rbp),%xmm1
  6030ae:	66 0f 2f c8          	comisd %xmm0,%xmm1
  6030b2:	b0 00                	mov    $0x0,%al
  6030b4:	7a 03                	jp     6030b9 <__fixdfdi+0x28>
  6030b6:	0f 93 c0             	setae  %al
  6030b9:	0f b6 c0             	movzbl %al,%eax
  6030bc:	89 45 ec             	mov    %eax,-0x14(%rbp)
  6030bf:	83 f8 00             	cmp    $0x0,%eax
  6030c2:	0f 84 05 00 00 00    	je     6030cd <__fixdfdi+0x3c>
  6030c8:	e9 19 00 00 00       	jmp    6030e6 <__fixdfdi+0x55>
  6030cd:	f3 0f 7e 45 f8       	movq   -0x8(%rbp),%xmm0
  6030d2:	48 8b 05 9f 28 20 00 	mov    0x20289f(%rip),%rax        # 805978 <__mzerodf+0x2c0>
  6030d9:	f3 0f 7e 08          	movq   (%rax),%xmm1
  6030dd:	66 0f 57 c1          	xorpd  %xmm1,%xmm0
  6030e1:	e9 05 00 00 00       	jmp    6030eb <__fixdfdi+0x5a>
  6030e6:	f3 0f 7e 45 f8       	movq   -0x8(%rbp),%xmm0
  6030eb:	66 0f d6 45 e0       	movq   %xmm0,-0x20(%rbp)
  6030f0:	f3 0f 7e 45 e0       	movq   -0x20(%rbp),%xmm0
  6030f5:	e8 80 fe ff ff       	call   602f7a <__fixunsdfdi>
  6030fa:	48 89 45 f0          	mov    %rax,-0x10(%rbp)
  6030fe:	8b 45 ec             	mov    -0x14(%rbp),%eax
  603101:	83 f8 00             	cmp    $0x0,%eax
  603104:	0f 84 05 00 00 00    	je     60310f <__fixdfdi+0x7e>
  60310a:	e9 16 00 00 00       	jmp    603125 <__fixdfdi+0x94>
  60310f:	48 b8 00 00 00 00 00 	movabs $0x0,%rax
  603116:	00 00 00 
  603119:	48 8b 4d f0          	mov    -0x10(%rbp),%rcx
  60311d:	48 29 c8             	sub    %rcx,%rax
  603120:	e9 04 00 00 00       	jmp    603129 <__fixdfdi+0x98>
  603125:	48 8b 45 f0          	mov    -0x10(%rbp),%rax
  603129:	c9                   	leave
  60312a:	c3                   	ret

000000000060312b <__fixunsxfdi>:
  60312b:	55                   	push   %rbp
  60312c:	48 89 e5             	mov    %rsp,%rbp
  60312f:	48 81 ec 30 00 00 00 	sub    $0x30,%rsp
  603136:	db 6d 10             	fldt   0x10(%rbp)
  603139:	d9 c0                	fld    %st(0)
  60313b:	db 7d f0             	fstpt  -0x10(%rbp)
  60313e:	dd d8                	fstp   %st(0)
  603140:	48 8b 45 f0          	mov    -0x10(%rbp),%rax
  603144:	48 83 f8 00          	cmp    $0x0,%rax
  603148:	0f 85 1c 00 00 00    	jne    60316a <__fixunsxfdi+0x3f>
  60314e:	0f b7 45 f8          	movzwl -0x8(%rbp),%eax
  603152:	83 f8 00             	cmp    $0x0,%eax
  603155:	0f 85 0f 00 00 00    	jne    60316a <__fixunsxfdi+0x3f>
  60315b:	48 b8 00 00 00 00 00 	movabs $0x0,%rax
  603162:	00 00 00 
  603165:	e9 9f 00 00 00       	jmp    603209 <__fixunsxfdi+0xde>
  60316a:	0f b7 45 f8          	movzwl -0x8(%rbp),%eax
  60316e:	81 e0 ff 7f 00 00    	and    $0x7fff,%eax
  603174:	81 e8 fe 3f 00 00    	sub    $0x3ffe,%eax
  60317a:	83 e8 40             	sub    $0x40,%eax
  60317d:	89 45 ec             	mov    %eax,-0x14(%rbp)
  603180:	48 8b 45 f0          	mov    -0x10(%rbp),%rax
  603184:	48 89 45 e0          	mov    %rax,-0x20(%rbp)
  603188:	8b 45 ec             	mov    -0x14(%rbp),%eax
  60318b:	83 f8 00             	cmp    $0x0,%eax
  60318e:	0f 8e 0f 00 00 00    	jle    6031a3 <__fixunsxfdi+0x78>
  603194:	48 b8 00 00 00 00 00 	movabs $0x8000000000000000,%rax
  60319b:	00 00 80 
  60319e:	e9 66 00 00 00       	jmp    603209 <__fixunsxfdi+0xde>
  6031a3:	8b 45 ec             	mov    -0x14(%rbp),%eax
  6031a6:	83 f8 c1             	cmp    $0xffffffc1,%eax
  6031a9:	0f 8d 0f 00 00 00    	jge    6031be <__fixunsxfdi+0x93>
  6031af:	48 b8 00 00 00 00 00 	movabs $0x0,%rax
  6031b6:	00 00 00 
  6031b9:	e9 4b 00 00 00       	jmp    603209 <__fixunsxfdi+0xde>
  6031be:	b8 00 00 00 00       	mov    $0x0,%eax
  6031c3:	8b 4d ec             	mov    -0x14(%rbp),%ecx
  6031c6:	29 c8                	sub    %ecx,%eax
  6031c8:	48 8b 4d e0          	mov    -0x20(%rbp),%rcx
  6031cc:	48 89 4d d8          	mov    %rcx,-0x28(%rbp)
  6031d0:	89 c1                	mov    %eax,%ecx
  6031d2:	48 8b 45 d8          	mov    -0x28(%rbp),%rax
  6031d6:	48 d3 e8             	shr    %cl,%rax
  6031d9:	48 89 45 e0          	mov    %rax,-0x20(%rbp)
  6031dd:	0f b7 45 f8          	movzwl -0x8(%rbp),%eax
  6031e1:	81 e0 00 80 00 00    	and    $0x8000,%eax
  6031e7:	83 f8 00             	cmp    $0x0,%eax
  6031ea:	0f 84 15 00 00 00    	je     603205 <__fixunsxfdi+0xda>
  6031f0:	48 b8 00 00 00 00 00 	movabs $0x0,%rax
  6031f7:	00 00 00 
  6031fa:	48 8b 4d e0          	mov    -0x20(%rbp),%rcx
  6031fe:	48 29 c8             	sub    %rcx,%rax
  603201:	48 89 45 e0          	mov    %rax,-0x20(%rbp)
  603205:	48 8b 45 e0          	mov    -0x20(%rbp),%rax
  603209:	c9                   	leave
  60320a:	c3                   	ret

000000000060320b <__fixxfdi>:
  60320b:	55                   	push   %rbp
  60320c:	48 89 e5             	mov    %rsp,%rbp
  60320f:	48 81 ec 10 00 00 00 	sub    $0x10,%rsp
  603216:	db 2d 84 24 20 00    	fldt   0x202484(%rip)        # 8056a0 <L.11>
  60321c:	db 6d 10             	fldt   0x10(%rbp)
  60321f:	de d9                	fcompp
  603221:	df e0                	fnstsw %ax
  603223:	f6 c4 05             	test   $0x5,%ah
  603226:	0f 94 c0             	sete   %al
  603229:	0f b6 c0             	movzbl %al,%eax
  60322c:	89 45 f4             	mov    %eax,-0xc(%rbp)
  60322f:	83 f8 00             	cmp    $0x0,%eax
  603232:	0f 84 05 00 00 00    	je     60323d <__fixxfdi+0x32>
  603238:	e9 0a 00 00 00       	jmp    603247 <__fixxfdi+0x3c>
  60323d:	db 6d 10             	fldt   0x10(%rbp)
  603240:	d9 e0                	fchs
  603242:	e9 03 00 00 00       	jmp    60324a <__fixxfdi+0x3f>
  603247:	db 6d 10             	fldt   0x10(%rbp)
  60324a:	48 81 ec 10 00 00 00 	sub    $0x10,%rsp
  603251:	db 7c 24 00          	fstpt  0x0(%rsp)
  603255:	dd d8                	fstp   %st(0)
  603257:	e8 cf fe ff ff       	call   60312b <__fixunsxfdi>
  60325c:	48 83 c4 10          	add    $0x10,%rsp
  603260:	48 89 45 f8          	mov    %rax,-0x8(%rbp)
  603264:	8b 45 f4             	mov    -0xc(%rbp),%eax
  603267:	83 f8 00             	cmp    $0x0,%eax
  60326a:	0f 84 05 00 00 00    	je     603275 <__fixxfdi+0x6a>
  603270:	e9 16 00 00 00       	jmp    60328b <__fixxfdi+0x80>
  603275:	48 b8 00 00 00 00 00 	movabs $0x0,%rax
  60327c:	00 00 00 
  60327f:	48 8b 4d f8          	mov    -0x8(%rbp),%rcx
  603283:	48 29 c8             	sub    %rcx,%rax
  603286:	e9 04 00 00 00       	jmp    60328f <__fixxfdi+0x84>
  60328b:	48 8b 45 f8          	mov    -0x8(%rbp),%rax
  60328f:	c9                   	leave
  603290:	c3                   	ret
  603291:	00 00                	add    %al,(%rax)
  603293:	00 00                	add    %al,(%rax)
  603295:	00 00                	add    %al,(%rax)
	...

0000000000603298 <__atomic_store_1>:
  603298:	55                   	push   %rbp
  603299:	48 89 e5             	mov    %rsp,%rbp
  60329c:	48 81 ec 20 00 00 00 	sub    $0x20,%rsp
  6032a3:	48 89 7d f8          	mov    %rdi,-0x8(%rbp)
  6032a7:	48 89 75 f0          	mov    %rsi,-0x10(%rbp)
  6032ab:	48 89 55 e8          	mov    %rdx,-0x18(%rbp)
  6032af:	48 8b 45 f8          	mov    -0x8(%rbp),%rax
  6032b3:	0f b6 4d f0          	movzbl -0x10(%rbp),%ecx
  6032b7:	88 08                	mov    %cl,(%rax)
  6032b9:	b8 04 00 00 00       	mov    $0x4,%eax
  6032be:	48 89 c7             	mov    %rax,%rdi
  6032c1:	e8 43 20 00 00       	call   605309 <__atomic_thread_fence>
  6032c6:	c9                   	leave
  6032c7:	c3                   	ret

00000000006032c8 <__atomic_load_1>:
  6032c8:	55                   	push   %rbp
  6032c9:	48 89 e5             	mov    %rsp,%rbp
  6032cc:	48 81 ec 10 00 00 00 	sub    $0x10,%rsp
  6032d3:	48 89 7d f8          	mov    %rdi,-0x8(%rbp)
  6032d7:	48 89 75 f0          	mov    %rsi,-0x10(%rbp)
  6032db:	b8 02 00 00 00       	mov    $0x2,%eax
  6032e0:	48 89 c7             	mov    %rax,%rdi
  6032e3:	e8 21 20 00 00       	call   605309 <__atomic_thread_fence>
  6032e8:	48 8b 45 f8          	mov    -0x8(%rbp),%rax
  6032ec:	0f b6 00             	movzbl (%rax),%eax
  6032ef:	c9                   	leave
  6032f0:	c3                   	ret

00000000006032f1 <__atomic_compare_exchange_1>:
  6032f1:	55                   	push   %rbp
  6032f2:	48 89 e5             	mov    %rsp,%rbp
  6032f5:	48 81 ec 40 00 00 00 	sub    $0x40,%rsp
  6032fc:	48 89 7d f8          	mov    %rdi,-0x8(%rbp)
  603300:	48 89 75 f0          	mov    %rsi,-0x10(%rbp)
  603304:	48 89 55 e8          	mov    %rdx,-0x18(%rbp)
  603308:	48 89 4d e0          	mov    %rcx,-0x20(%rbp)
  60330c:	4c 89 45 d8          	mov    %r8,-0x28(%rbp)
  603310:	4c 89 4d d0          	mov    %r9,-0x30(%rbp)
  603314:	48 8b 45 f0          	mov    -0x10(%rbp),%rax
  603318:	0f b6 00             	movzbl (%rax),%eax
  60331b:	88 45 ce             	mov    %al,-0x32(%rbp)
  60331e:	48 8b 45 f8          	mov    -0x8(%rbp),%rax
  603322:	48 89 45 c0          	mov    %rax,-0x40(%rbp)
  603326:	48 8b 55 c0          	mov    -0x40(%rbp),%rdx
  60332a:	0f b6 4d e8          	movzbl -0x18(%rbp),%ecx
  60332e:	0f b6 45 ce          	movzbl -0x32(%rbp),%eax
  603332:	f0 0f b0 0a          	lock cmpxchg %cl,(%rdx)
  603336:	88 45 cf             	mov    %al,-0x31(%rbp)
  603339:	48 8b 45 f0          	mov    -0x10(%rbp),%rax
  60333d:	0f b6 4d cf          	movzbl -0x31(%rbp),%ecx
  603341:	88 08                	mov    %cl,(%rax)
  603343:	0f b6 45 cf          	movzbl -0x31(%rbp),%eax
  603347:	0f b6 4d ce          	movzbl -0x32(%rbp),%ecx
  60334b:	39 c8                	cmp    %ecx,%eax
  60334d:	0f 94 c0             	sete   %al
  603350:	0f b6 c0             	movzbl %al,%eax
  603353:	c9                   	leave
  603354:	c3                   	ret

0000000000603355 <__atomic_exchange_1>:
  603355:	55                   	push   %rbp
  603356:	48 89 e5             	mov    %rsp,%rbp
  603359:	48 81 ec 20 00 00 00 	sub    $0x20,%rsp
  603360:	48 89 7d f8          	mov    %rdi,-0x8(%rbp)
  603364:	48 89 75 f0          	mov    %rsi,-0x10(%rbp)
  603368:	48 89 55 e8          	mov    %rdx,-0x18(%rbp)
  60336c:	b8 00 00 00 00       	mov    $0x0,%eax
  603371:	48 89 c6             	mov    %rax,%rsi
  603374:	48 8b 45 f8          	mov    -0x8(%rbp),%rax
  603378:	48 89 c7             	mov    %rax,%rdi
  60337b:	b8 00 00 00 00       	mov    $0x0,%eax
  603380:	e8 43 ff ff ff       	call   6032c8 <__atomic_load_1>
  603385:	0f b6 c0             	movzbl %al,%eax
  603388:	88 45 e6             	mov    %al,-0x1a(%rbp)
  60338b:	0f b6 45 f0          	movzbl -0x10(%rbp),%eax
  60338f:	88 45 e7             	mov    %al,-0x19(%rbp)
  603392:	b8 05 00 00 00       	mov    $0x5,%eax
  603397:	49 89 c1             	mov    %rax,%r9
  60339a:	b8 05 00 00 00       	mov    $0x5,%eax
  60339f:	49 89 c0             	mov    %rax,%r8
  6033a2:	b8 01 00 00 00       	mov    $0x1,%eax
  6033a7:	49 89 c3             	mov    %rax,%r11
  6033aa:	0f b6 45 e7          	movzbl -0x19(%rbp),%eax
  6033ae:	49 89 c2             	mov    %rax,%r10
  6033b1:	48 8d 45 e6          	lea    -0x1a(%rbp),%rax
  6033b5:	48 89 c6             	mov    %rax,%rsi
  6033b8:	48 8b 45 f8          	mov    -0x8(%rbp),%rax
  6033bc:	48 89 c7             	mov    %rax,%rdi
  6033bf:	4c 89 d2             	mov    %r10,%rdx
  6033c2:	4c 89 d9             	mov    %r11,%rcx
  6033c5:	b8 00 00 00 00       	mov    $0x0,%eax
  6033ca:	e8 22 ff ff ff       	call   6032f1 <__atomic_compare_exchange_1>
  6033cf:	0f b6 c0             	movzbl %al,%eax
  6033d2:	83 f8 00             	cmp    $0x0,%eax
  6033d5:	0f 84 b0 ff ff ff    	je     60338b <__atomic_exchange_1+0x36>
  6033db:	0f b6 45 e6          	movzbl -0x1a(%rbp),%eax
  6033df:	c9                   	leave
  6033e0:	c3                   	ret

00000000006033e1 <__atomic_add_fetch_1>:
  6033e1:	55                   	push   %rbp
  6033e2:	48 89 e5             	mov    %rsp,%rbp
  6033e5:	48 81 ec 20 00 00 00 	sub    $0x20,%rsp
  6033ec:	48 89 7d f8          	mov    %rdi,-0x8(%rbp)
  6033f0:	48 89 75 f0          	mov    %rsi,-0x10(%rbp)
  6033f4:	48 89 55 e8          	mov    %rdx,-0x18(%rbp)
  6033f8:	b8 00 00 00 00       	mov    $0x0,%eax
  6033fd:	48 89 c6             	mov    %rax,%rsi
  603400:	48 8b 45 f8          	mov    -0x8(%rbp),%rax
  603404:	48 89 c7             	mov    %rax,%rdi
  603407:	b8 00 00 00 00       	mov    $0x0,%eax
  60340c:	e8 b7 fe ff ff       	call   6032c8 <__atomic_load_1>
  603411:	0f b6 c0             	movzbl %al,%eax
  603414:	88 45 e6             	mov    %al,-0x1a(%rbp)
  603417:	0f b6 45 e6          	movzbl -0x1a(%rbp),%eax
  60341b:	0f b6 4d f0          	movzbl -0x10(%rbp),%ecx
  60341f:	01 c8                	add    %ecx,%eax
  603421:	88 45 e7             	mov    %al,-0x19(%rbp)
  603424:	b8 05 00 00 00       	mov    $0x5,%eax
  603429:	49 89 c1             	mov    %rax,%r9
  60342c:	b8 05 00 00 00       	mov    $0x5,%eax
  603431:	49 89 c0             	mov    %rax,%r8
  603434:	b8 01 00 00 00       	mov    $0x1,%eax
  603439:	49 89 c3             	mov    %rax,%r11
  60343c:	0f b6 45 e7          	movzbl -0x19(%rbp),%eax
  603440:	49 89 c2             	mov    %rax,%r10
  603443:	48 8d 45 e6          	lea    -0x1a(%rbp),%rax
  603447:	48 89 c6             	mov    %rax,%rsi
  60344a:	48 8b 45 f8          	mov    -0x8(%rbp),%rax
  60344e:	48 89 c7             	mov    %rax,%rdi
  603451:	4c 89 d2             	mov    %r10,%rdx
  603454:	4c 89 d9             	mov    %r11,%rcx
  603457:	b8 00 00 00 00       	mov    $0x0,%eax
  60345c:	e8 90 fe ff ff       	call   6032f1 <__atomic_compare_exchange_1>
  603461:	0f b6 c0             	movzbl %al,%eax
  603464:	83 f8 00             	cmp    $0x0,%eax
  603467:	0f 84 aa ff ff ff    	je     603417 <__atomic_add_fetch_1+0x36>
  60346d:	0f b6 45 e7          	movzbl -0x19(%rbp),%eax
  603471:	c9                   	leave
  603472:	c3                   	ret

0000000000603473 <__atomic_sub_fetch_1>:
  603473:	55                   	push   %rbp
  603474:	48 89 e5             	mov    %rsp,%rbp
  603477:	48 81 ec 20 00 00 00 	sub    $0x20,%rsp
  60347e:	48 89 7d f8          	mov    %rdi,-0x8(%rbp)
  603482:	48 89 75 f0          	mov    %rsi,-0x10(%rbp)
  603486:	48 89 55 e8          	mov    %rdx,-0x18(%rbp)
  60348a:	b8 00 00 00 00       	mov    $0x0,%eax
  60348f:	48 89 c6             	mov    %rax,%rsi
  603492:	48 8b 45 f8          	mov    -0x8(%rbp),%rax
  603496:	48 89 c7             	mov    %rax,%rdi
  603499:	b8 00 00 00 00       	mov    $0x0,%eax
  60349e:	e8 25 fe ff ff       	call   6032c8 <__atomic_load_1>
  6034a3:	0f b6 c0             	movzbl %al,%eax
  6034a6:	88 45 e6             	mov    %al,-0x1a(%rbp)
  6034a9:	0f b6 45 e6          	movzbl -0x1a(%rbp),%eax
  6034ad:	0f b6 4d f0          	movzbl -0x10(%rbp),%ecx
  6034b1:	29 c8                	sub    %ecx,%eax
  6034b3:	88 45 e7             	mov    %al,-0x19(%rbp)
  6034b6:	b8 05 00 00 00       	mov    $0x5,%eax
  6034bb:	49 89 c1             	mov    %rax,%r9
  6034be:	b8 05 00 00 00       	mov    $0x5,%eax
  6034c3:	49 89 c0             	mov    %rax,%r8
  6034c6:	b8 01 00 00 00       	mov    $0x1,%eax
  6034cb:	49 89 c3             	mov    %rax,%r11
  6034ce:	0f b6 45 e7          	movzbl -0x19(%rbp),%eax
  6034d2:	49 89 c2             	mov    %rax,%r10
  6034d5:	48 8d 45 e6          	lea    -0x1a(%rbp),%rax
  6034d9:	48 89 c6             	mov    %rax,%rsi
  6034dc:	48 8b 45 f8          	mov    -0x8(%rbp),%rax
  6034e0:	48 89 c7             	mov    %rax,%rdi
  6034e3:	4c 89 d2             	mov    %r10,%rdx
  6034e6:	4c 89 d9             	mov    %r11,%rcx
  6034e9:	b8 00 00 00 00       	mov    $0x0,%eax
  6034ee:	e8 fe fd ff ff       	call   6032f1 <__atomic_compare_exchange_1>
  6034f3:	0f b6 c0             	movzbl %al,%eax
  6034f6:	83 f8 00             	cmp    $0x0,%eax
  6034f9:	0f 84 aa ff ff ff    	je     6034a9 <__atomic_sub_fetch_1+0x36>
  6034ff:	0f b6 45 e7          	movzbl -0x19(%rbp),%eax
  603503:	c9                   	leave
  603504:	c3                   	ret

0000000000603505 <__atomic_and_fetch_1>:
  603505:	55                   	push   %rbp
  603506:	48 89 e5             	mov    %rsp,%rbp
  603509:	48 81 ec 20 00 00 00 	sub    $0x20,%rsp
  603510:	48 89 7d f8          	mov    %rdi,-0x8(%rbp)
  603514:	48 89 75 f0          	mov    %rsi,-0x10(%rbp)
  603518:	48 89 55 e8          	mov    %rdx,-0x18(%rbp)
  60351c:	b8 00 00 00 00       	mov    $0x0,%eax
  603521:	48 89 c6             	mov    %rax,%rsi
  603524:	48 8b 45 f8          	mov    -0x8(%rbp),%rax
  603528:	48 89 c7             	mov    %rax,%rdi
  60352b:	b8 00 00 00 00       	mov    $0x0,%eax
  603530:	e8 93 fd ff ff       	call   6032c8 <__atomic_load_1>
  603535:	0f b6 c0             	movzbl %al,%eax
  603538:	88 45 e6             	mov    %al,-0x1a(%rbp)
  60353b:	0f b6 45 e6          	movzbl -0x1a(%rbp),%eax
  60353f:	0f b6 4d f0          	movzbl -0x10(%rbp),%ecx
  603543:	21 c8                	and    %ecx,%eax
  603545:	88 45 e7             	mov    %al,-0x19(%rbp)
  603548:	b8 05 00 00 00       	mov    $0x5,%eax
  60354d:	49 89 c1             	mov    %rax,%r9
  603550:	b8 05 00 00 00       	mov    $0x5,%eax
  603555:	49 89 c0             	mov    %rax,%r8
  603558:	b8 01 00 00 00       	mov    $0x1,%eax
  60355d:	49 89 c3             	mov    %rax,%r11
  603560:	0f b6 45 e7          	movzbl -0x19(%rbp),%eax
  603564:	49 89 c2             	mov    %rax,%r10
  603567:	48 8d 45 e6          	lea    -0x1a(%rbp),%rax
  60356b:	48 89 c6             	mov    %rax,%rsi
  60356e:	48 8b 45 f8          	mov    -0x8(%rbp),%rax
  603572:	48 89 c7             	mov    %rax,%rdi
  603575:	4c 89 d2             	mov    %r10,%rdx
  603578:	4c 89 d9             	mov    %r11,%rcx
  60357b:	b8 00 00 00 00       	mov    $0x0,%eax
  603580:	e8 6c fd ff ff       	call   6032f1 <__atomic_compare_exchange_1>
  603585:	0f b6 c0             	movzbl %al,%eax
  603588:	83 f8 00             	cmp    $0x0,%eax
  60358b:	0f 84 aa ff ff ff    	je     60353b <__atomic_and_fetch_1+0x36>
  603591:	0f b6 45 e7          	movzbl -0x19(%rbp),%eax
  603595:	c9                   	leave
  603596:	c3                   	ret

0000000000603597 <__atomic_or_fetch_1>:
  603597:	55                   	push   %rbp
  603598:	48 89 e5             	mov    %rsp,%rbp
  60359b:	48 81 ec 20 00 00 00 	sub    $0x20,%rsp
  6035a2:	48 89 7d f8          	mov    %rdi,-0x8(%rbp)
  6035a6:	48 89 75 f0          	mov    %rsi,-0x10(%rbp)
  6035aa:	48 89 55 e8          	mov    %rdx,-0x18(%rbp)
  6035ae:	b8 00 00 00 00       	mov    $0x0,%eax
  6035b3:	48 89 c6             	mov    %rax,%rsi
  6035b6:	48 8b 45 f8          	mov    -0x8(%rbp),%rax
  6035ba:	48 89 c7             	mov    %rax,%rdi
  6035bd:	b8 00 00 00 00       	mov    $0x0,%eax
  6035c2:	e8 01 fd ff ff       	call   6032c8 <__atomic_load_1>
  6035c7:	0f b6 c0             	movzbl %al,%eax
  6035ca:	88 45 e6             	mov    %al,-0x1a(%rbp)
  6035cd:	0f b6 45 e6          	movzbl -0x1a(%rbp),%eax
  6035d1:	0f b6 4d f0          	movzbl -0x10(%rbp),%ecx
  6035d5:	09 c8                	or     %ecx,%eax
  6035d7:	88 45 e7             	mov    %al,-0x19(%rbp)
  6035da:	b8 05 00 00 00       	mov    $0x5,%eax
  6035df:	49 89 c1             	mov    %rax,%r9
  6035e2:	b8 05 00 00 00       	mov    $0x5,%eax
  6035e7:	49 89 c0             	mov    %rax,%r8
  6035ea:	b8 01 00 00 00       	mov    $0x1,%eax
  6035ef:	49 89 c3             	mov    %rax,%r11
  6035f2:	0f b6 45 e7          	movzbl -0x19(%rbp),%eax
  6035f6:	49 89 c2             	mov    %rax,%r10
  6035f9:	48 8d 45 e6          	lea    -0x1a(%rbp),%rax
  6035fd:	48 89 c6             	mov    %rax,%rsi
  603600:	48 8b 45 f8          	mov    -0x8(%rbp),%rax
  603604:	48 89 c7             	mov    %rax,%rdi
  603607:	4c 89 d2             	mov    %r10,%rdx
  60360a:	4c 89 d9             	mov    %r11,%rcx
  60360d:	b8 00 00 00 00       	mov    $0x0,%eax
  603612:	e8 da fc ff ff       	call   6032f1 <__atomic_compare_exchange_1>
  603617:	0f b6 c0             	movzbl %al,%eax
  60361a:	83 f8 00             	cmp    $0x0,%eax
  60361d:	0f 84 aa ff ff ff    	je     6035cd <__atomic_or_fetch_1+0x36>
  603623:	0f b6 45 e7          	movzbl -0x19(%rbp),%eax
  603627:	c9                   	leave
  603628:	c3                   	ret

0000000000603629 <__atomic_xor_fetch_1>:
  603629:	55                   	push   %rbp
  60362a:	48 89 e5             	mov    %rsp,%rbp
  60362d:	48 81 ec 20 00 00 00 	sub    $0x20,%rsp
  603634:	48 89 7d f8          	mov    %rdi,-0x8(%rbp)
  603638:	48 89 75 f0          	mov    %rsi,-0x10(%rbp)
  60363c:	48 89 55 e8          	mov    %rdx,-0x18(%rbp)
  603640:	b8 00 00 00 00       	mov    $0x0,%eax
  603645:	48 89 c6             	mov    %rax,%rsi
  603648:	48 8b 45 f8          	mov    -0x8(%rbp),%rax
  60364c:	48 89 c7             	mov    %rax,%rdi
  60364f:	b8 00 00 00 00       	mov    $0x0,%eax
  603654:	e8 6f fc ff ff       	call   6032c8 <__atomic_load_1>
  603659:	0f b6 c0             	movzbl %al,%eax
  60365c:	88 45 e6             	mov    %al,-0x1a(%rbp)
  60365f:	0f b6 45 e6          	movzbl -0x1a(%rbp),%eax
  603663:	0f b6 4d f0          	movzbl -0x10(%rbp),%ecx
  603667:	31 c8                	xor    %ecx,%eax
  603669:	88 45 e7             	mov    %al,-0x19(%rbp)
  60366c:	b8 05 00 00 00       	mov    $0x5,%eax
  603671:	49 89 c1             	mov    %rax,%r9
  603674:	b8 05 00 00 00       	mov    $0x5,%eax
  603679:	49 89 c0             	mov    %rax,%r8
  60367c:	b8 01 00 00 00       	mov    $0x1,%eax
  603681:	49 89 c3             	mov    %rax,%r11
  603684:	0f b6 45 e7          	movzbl -0x19(%rbp),%eax
  603688:	49 89 c2             	mov    %rax,%r10
  60368b:	48 8d 45 e6          	lea    -0x1a(%rbp),%rax
  60368f:	48 89 c6             	mov    %rax,%rsi
  603692:	48 8b 45 f8          	mov    -0x8(%rbp),%rax
  603696:	48 89 c7             	mov    %rax,%rdi
  603699:	4c 89 d2             	mov    %r10,%rdx
  60369c:	4c 89 d9             	mov    %r11,%rcx
  60369f:	b8 00 00 00 00       	mov    $0x0,%eax
  6036a4:	e8 48 fc ff ff       	call   6032f1 <__atomic_compare_exchange_1>
  6036a9:	0f b6 c0             	movzbl %al,%eax
  6036ac:	83 f8 00             	cmp    $0x0,%eax
  6036af:	0f 84 aa ff ff ff    	je     60365f <__atomic_xor_fetch_1+0x36>
  6036b5:	0f b6 45 e7          	movzbl -0x19(%rbp),%eax
  6036b9:	c9                   	leave
  6036ba:	c3                   	ret

00000000006036bb <__atomic_nand_fetch_1>:
  6036bb:	55                   	push   %rbp
  6036bc:	48 89 e5             	mov    %rsp,%rbp
  6036bf:	48 81 ec 20 00 00 00 	sub    $0x20,%rsp
  6036c6:	48 89 7d f8          	mov    %rdi,-0x8(%rbp)
  6036ca:	48 89 75 f0          	mov    %rsi,-0x10(%rbp)
  6036ce:	48 89 55 e8          	mov    %rdx,-0x18(%rbp)
  6036d2:	b8 00 00 00 00       	mov    $0x0,%eax
  6036d7:	48 89 c6             	mov    %rax,%rsi
  6036da:	48 8b 45 f8          	mov    -0x8(%rbp),%rax
  6036de:	48 89 c7             	mov    %rax,%rdi
  6036e1:	b8 00 00 00 00       	mov    $0x0,%eax
  6036e6:	e8 dd fb ff ff       	call   6032c8 <__atomic_load_1>
  6036eb:	0f b6 c0             	movzbl %al,%eax
  6036ee:	88 45 e6             	mov    %al,-0x1a(%rbp)
  6036f1:	0f b6 45 e6          	movzbl -0x1a(%rbp),%eax
  6036f5:	0f b6 4d f0          	movzbl -0x10(%rbp),%ecx
  6036f9:	21 c8                	and    %ecx,%eax
  6036fb:	83 f0 ff             	xor    $0xffffffff,%eax
  6036fe:	88 45 e7             	mov    %al,-0x19(%rbp)
  603701:	b8 05 00 00 00       	mov    $0x5,%eax
  603706:	49 89 c1             	mov    %rax,%r9
  603709:	b8 05 00 00 00       	mov    $0x5,%eax
  60370e:	49 89 c0             	mov    %rax,%r8
  603711:	b8 01 00 00 00       	mov    $0x1,%eax
  603716:	49 89 c3             	mov    %rax,%r11
  603719:	0f b6 45 e7          	movzbl -0x19(%rbp),%eax
  60371d:	49 89 c2             	mov    %rax,%r10
  603720:	48 8d 45 e6          	lea    -0x1a(%rbp),%rax
  603724:	48 89 c6             	mov    %rax,%rsi
  603727:	48 8b 45 f8          	mov    -0x8(%rbp),%rax
  60372b:	48 89 c7             	mov    %rax,%rdi
  60372e:	4c 89 d2             	mov    %r10,%rdx
  603731:	4c 89 d9             	mov    %r11,%rcx
  603734:	b8 00 00 00 00       	mov    $0x0,%eax
  603739:	e8 b3 fb ff ff       	call   6032f1 <__atomic_compare_exchange_1>
  60373e:	0f b6 c0             	movzbl %al,%eax
  603741:	83 f8 00             	cmp    $0x0,%eax
  603744:	0f 84 a7 ff ff ff    	je     6036f1 <__atomic_nand_fetch_1+0x36>
  60374a:	0f b6 45 e7          	movzbl -0x19(%rbp),%eax
  60374e:	c9                   	leave
  60374f:	c3                   	ret

0000000000603750 <__atomic_fetch_add_1>:
  603750:	55                   	push   %rbp
  603751:	48 89 e5             	mov    %rsp,%rbp
  603754:	48 81 ec 20 00 00 00 	sub    $0x20,%rsp
  60375b:	48 89 7d f8          	mov    %rdi,-0x8(%rbp)
  60375f:	48 89 75 f0          	mov    %rsi,-0x10(%rbp)
  603763:	48 89 55 e8          	mov    %rdx,-0x18(%rbp)
  603767:	b8 00 00 00 00       	mov    $0x0,%eax
  60376c:	48 89 c6             	mov    %rax,%rsi
  60376f:	48 8b 45 f8          	mov    -0x8(%rbp),%rax
  603773:	48 89 c7             	mov    %rax,%rdi
  603776:	b8 00 00 00 00       	mov    $0x0,%eax
  60377b:	e8 48 fb ff ff       	call   6032c8 <__atomic_load_1>
  603780:	0f b6 c0             	movzbl %al,%eax
  603783:	88 45 e6             	mov    %al,-0x1a(%rbp)
  603786:	0f b6 45 e6          	movzbl -0x1a(%rbp),%eax
  60378a:	0f b6 4d f0          	movzbl -0x10(%rbp),%ecx
  60378e:	01 c8                	add    %ecx,%eax
  603790:	88 45 e7             	mov    %al,-0x19(%rbp)
  603793:	b8 05 00 00 00       	mov    $0x5,%eax
  603798:	49 89 c1             	mov    %rax,%r9
  60379b:	b8 05 00 00 00       	mov    $0x5,%eax
  6037a0:	49 89 c0             	mov    %rax,%r8
  6037a3:	b8 01 00 00 00       	mov    $0x1,%eax
  6037a8:	49 89 c3             	mov    %rax,%r11
  6037ab:	0f b6 45 e7          	movzbl -0x19(%rbp),%eax
  6037af:	49 89 c2             	mov    %rax,%r10
  6037b2:	48 8d 45 e6          	lea    -0x1a(%rbp),%rax
  6037b6:	48 89 c6             	mov    %rax,%rsi
  6037b9:	48 8b 45 f8          	mov    -0x8(%rbp),%rax
  6037bd:	48 89 c7             	mov    %rax,%rdi
  6037c0:	4c 89 d2             	mov    %r10,%rdx
  6037c3:	4c 89 d9             	mov    %r11,%rcx
  6037c6:	b8 00 00 00 00       	mov    $0x0,%eax
  6037cb:	e8 21 fb ff ff       	call   6032f1 <__atomic_compare_exchange_1>
  6037d0:	0f b6 c0             	movzbl %al,%eax
  6037d3:	83 f8 00             	cmp    $0x0,%eax
  6037d6:	0f 84 aa ff ff ff    	je     603786 <__atomic_fetch_add_1+0x36>
  6037dc:	0f b6 45 e6          	movzbl -0x1a(%rbp),%eax
  6037e0:	c9                   	leave
  6037e1:	c3                   	ret

00000000006037e2 <__atomic_fetch_sub_1>:
  6037e2:	55                   	push   %rbp
  6037e3:	48 89 e5             	mov    %rsp,%rbp
  6037e6:	48 81 ec 20 00 00 00 	sub    $0x20,%rsp
  6037ed:	48 89 7d f8          	mov    %rdi,-0x8(%rbp)
  6037f1:	48 89 75 f0          	mov    %rsi,-0x10(%rbp)
  6037f5:	48 89 55 e8          	mov    %rdx,-0x18(%rbp)
  6037f9:	b8 00 00 00 00       	mov    $0x0,%eax
  6037fe:	48 89 c6             	mov    %rax,%rsi
  603801:	48 8b 45 f8          	mov    -0x8(%rbp),%rax
  603805:	48 89 c7             	mov    %rax,%rdi
  603808:	b8 00 00 00 00       	mov    $0x0,%eax
  60380d:	e8 b6 fa ff ff       	call   6032c8 <__atomic_load_1>
  603812:	0f b6 c0             	movzbl %al,%eax
  603815:	88 45 e6             	mov    %al,-0x1a(%rbp)
  603818:	0f b6 45 e6          	movzbl -0x1a(%rbp),%eax
  60381c:	0f b6 4d f0          	movzbl -0x10(%rbp),%ecx
  603820:	29 c8                	sub    %ecx,%eax
  603822:	88 45 e7             	mov    %al,-0x19(%rbp)
  603825:	b8 05 00 00 00       	mov    $0x5,%eax
  60382a:	49 89 c1             	mov    %rax,%r9
  60382d:	b8 05 00 00 00       	mov    $0x5,%eax
  603832:	49 89 c0             	mov    %rax,%r8
  603835:	b8 01 00 00 00       	mov    $0x1,%eax
  60383a:	49 89 c3             	mov    %rax,%r11
  60383d:	0f b6 45 e7          	movzbl -0x19(%rbp),%eax
  603841:	49 89 c2             	mov    %rax,%r10
  603844:	48 8d 45 e6          	lea    -0x1a(%rbp),%rax
  603848:	48 89 c6             	mov    %rax,%rsi
  60384b:	48 8b 45 f8          	mov    -0x8(%rbp),%rax
  60384f:	48 89 c7             	mov    %rax,%rdi
  603852:	4c 89 d2             	mov    %r10,%rdx
  603855:	4c 89 d9             	mov    %r11,%rcx
  603858:	b8 00 00 00 00       	mov    $0x0,%eax
  60385d:	e8 8f fa ff ff       	call   6032f1 <__atomic_compare_exchange_1>
  603862:	0f b6 c0             	movzbl %al,%eax
  603865:	83 f8 00             	cmp    $0x0,%eax
  603868:	0f 84 aa ff ff ff    	je     603818 <__atomic_fetch_sub_1+0x36>
  60386e:	0f b6 45 e6          	movzbl -0x1a(%rbp),%eax
  603872:	c9                   	leave
  603873:	c3                   	ret

0000000000603874 <__atomic_fetch_and_1>:
  603874:	55                   	push   %rbp
  603875:	48 89 e5             	mov    %rsp,%rbp
  603878:	48 81 ec 20 00 00 00 	sub    $0x20,%rsp
  60387f:	48 89 7d f8          	mov    %rdi,-0x8(%rbp)
  603883:	48 89 75 f0          	mov    %rsi,-0x10(%rbp)
  603887:	48 89 55 e8          	mov    %rdx,-0x18(%rbp)
  60388b:	b8 00 00 00 00       	mov    $0x0,%eax
  603890:	48 89 c6             	mov    %rax,%rsi
  603893:	48 8b 45 f8          	mov    -0x8(%rbp),%rax
  603897:	48 89 c7             	mov    %rax,%rdi
  60389a:	b8 00 00 00 00       	mov    $0x0,%eax
  60389f:	e8 24 fa ff ff       	call   6032c8 <__atomic_load_1>
  6038a4:	0f b6 c0             	movzbl %al,%eax
  6038a7:	88 45 e6             	mov    %al,-0x1a(%rbp)
  6038aa:	0f b6 45 e6          	movzbl -0x1a(%rbp),%eax
  6038ae:	0f b6 4d f0          	movzbl -0x10(%rbp),%ecx
  6038b2:	21 c8                	and    %ecx,%eax
  6038b4:	88 45 e7             	mov    %al,-0x19(%rbp)
  6038b7:	b8 05 00 00 00       	mov    $0x5,%eax
  6038bc:	49 89 c1             	mov    %rax,%r9
  6038bf:	b8 05 00 00 00       	mov    $0x5,%eax
  6038c4:	49 89 c0             	mov    %rax,%r8
  6038c7:	b8 01 00 00 00       	mov    $0x1,%eax
  6038cc:	49 89 c3             	mov    %rax,%r11
  6038cf:	0f b6 45 e7          	movzbl -0x19(%rbp),%eax
  6038d3:	49 89 c2             	mov    %rax,%r10
  6038d6:	48 8d 45 e6          	lea    -0x1a(%rbp),%rax
  6038da:	48 89 c6             	mov    %rax,%rsi
  6038dd:	48 8b 45 f8          	mov    -0x8(%rbp),%rax
  6038e1:	48 89 c7             	mov    %rax,%rdi
  6038e4:	4c 89 d2             	mov    %r10,%rdx
  6038e7:	4c 89 d9             	mov    %r11,%rcx
  6038ea:	b8 00 00 00 00       	mov    $0x0,%eax
  6038ef:	e8 fd f9 ff ff       	call   6032f1 <__atomic_compare_exchange_1>
  6038f4:	0f b6 c0             	movzbl %al,%eax
  6038f7:	83 f8 00             	cmp    $0x0,%eax
  6038fa:	0f 84 aa ff ff ff    	je     6038aa <__atomic_fetch_and_1+0x36>
  603900:	0f b6 45 e6          	movzbl -0x1a(%rbp),%eax
  603904:	c9                   	leave
  603905:	c3                   	ret

0000000000603906 <__atomic_fetch_or_1>:
  603906:	55                   	push   %rbp
  603907:	48 89 e5             	mov    %rsp,%rbp
  60390a:	48 81 ec 20 00 00 00 	sub    $0x20,%rsp
  603911:	48 89 7d f8          	mov    %rdi,-0x8(%rbp)
  603915:	48 89 75 f0          	mov    %rsi,-0x10(%rbp)
  603919:	48 89 55 e8          	mov    %rdx,-0x18(%rbp)
  60391d:	b8 00 00 00 00       	mov    $0x0,%eax
  603922:	48 89 c6             	mov    %rax,%rsi
  603925:	48 8b 45 f8          	mov    -0x8(%rbp),%rax
  603929:	48 89 c7             	mov    %rax,%rdi
  60392c:	b8 00 00 00 00       	mov    $0x0,%eax
  603931:	e8 92 f9 ff ff       	call   6032c8 <__atomic_load_1>
  603936:	0f b6 c0             	movzbl %al,%eax
  603939:	88 45 e6             	mov    %al,-0x1a(%rbp)
  60393c:	0f b6 45 e6          	movzbl -0x1a(%rbp),%eax
  603940:	0f b6 4d f0          	movzbl -0x10(%rbp),%ecx
  603944:	09 c8                	or     %ecx,%eax
  603946:	88 45 e7             	mov    %al,-0x19(%rbp)
  603949:	b8 05 00 00 00       	mov    $0x5,%eax
  60394e:	49 89 c1             	mov    %rax,%r9
  603951:	b8 05 00 00 00       	mov    $0x5,%eax
  603956:	49 89 c0             	mov    %rax,%r8
  603959:	b8 01 00 00 00       	mov    $0x1,%eax
  60395e:	49 89 c3             	mov    %rax,%r11
  603961:	0f b6 45 e7          	movzbl -0x19(%rbp),%eax
  603965:	49 89 c2             	mov    %rax,%r10
  603968:	48 8d 45 e6          	lea    -0x1a(%rbp),%rax
  60396c:	48 89 c6             	mov    %rax,%rsi
  60396f:	48 8b 45 f8          	mov    -0x8(%rbp),%rax
  603973:	48 89 c7             	mov    %rax,%rdi
  603976:	4c 89 d2             	mov    %r10,%rdx
  603979:	4c 89 d9             	mov    %r11,%rcx
  60397c:	b8 00 00 00 00       	mov    $0x0,%eax
  603981:	e8 6b f9 ff ff       	call   6032f1 <__atomic_compare_exchange_1>
  603986:	0f b6 c0             	movzbl %al,%eax
  603989:	83 f8 00             	cmp    $0x0,%eax
  60398c:	0f 84 aa ff ff ff    	je     60393c <__atomic_fetch_or_1+0x36>
  603992:	0f b6 45 e6          	movzbl -0x1a(%rbp),%eax
  603996:	c9                   	leave
  603997:	c3                   	ret

0000000000603998 <__atomic_fetch_xor_1>:
  603998:	55                   	push   %rbp
  603999:	48 89 e5             	mov    %rsp,%rbp
  60399c:	48 81 ec 20 00 00 00 	sub    $0x20,%rsp
  6039a3:	48 89 7d f8          	mov    %rdi,-0x8(%rbp)
  6039a7:	48 89 75 f0          	mov    %rsi,-0x10(%rbp)
  6039ab:	48 89 55 e8          	mov    %rdx,-0x18(%rbp)
  6039af:	b8 00 00 00 00       	mov    $0x0,%eax
  6039b4:	48 89 c6             	mov    %rax,%rsi
  6039b7:	48 8b 45 f8          	mov    -0x8(%rbp),%rax
  6039bb:	48 89 c7             	mov    %rax,%rdi
  6039be:	b8 00 00 00 00       	mov    $0x0,%eax
  6039c3:	e8 00 f9 ff ff       	call   6032c8 <__atomic_load_1>
  6039c8:	0f b6 c0             	movzbl %al,%eax
  6039cb:	88 45 e6             	mov    %al,-0x1a(%rbp)
  6039ce:	0f b6 45 e6          	movzbl -0x1a(%rbp),%eax
  6039d2:	0f b6 4d f0          	movzbl -0x10(%rbp),%ecx
  6039d6:	31 c8                	xor    %ecx,%eax
  6039d8:	88 45 e7             	mov    %al,-0x19(%rbp)
  6039db:	b8 05 00 00 00       	mov    $0x5,%eax
  6039e0:	49 89 c1             	mov    %rax,%r9
  6039e3:	b8 05 00 00 00       	mov    $0x5,%eax
  6039e8:	49 89 c0             	mov    %rax,%r8
  6039eb:	b8 01 00 00 00       	mov    $0x1,%eax
  6039f0:	49 89 c3             	mov    %rax,%r11
  6039f3:	0f b6 45 e7          	movzbl -0x19(%rbp),%eax
  6039f7:	49 89 c2             	mov    %rax,%r10
  6039fa:	48 8d 45 e6          	lea    -0x1a(%rbp),%rax
  6039fe:	48 89 c6             	mov    %rax,%rsi
  603a01:	48 8b 45 f8          	mov    -0x8(%rbp),%rax
  603a05:	48 89 c7             	mov    %rax,%rdi
  603a08:	4c 89 d2             	mov    %r10,%rdx
  603a0b:	4c 89 d9             	mov    %r11,%rcx
  603a0e:	b8 00 00 00 00       	mov    $0x0,%eax
  603a13:	e8 d9 f8 ff ff       	call   6032f1 <__atomic_compare_exchange_1>
  603a18:	0f b6 c0             	movzbl %al,%eax
  603a1b:	83 f8 00             	cmp    $0x0,%eax
  603a1e:	0f 84 aa ff ff ff    	je     6039ce <__atomic_fetch_xor_1+0x36>
  603a24:	0f b6 45 e6          	movzbl -0x1a(%rbp),%eax
  603a28:	c9                   	leave
  603a29:	c3                   	ret

0000000000603a2a <__atomic_fetch_nand_1>:
  603a2a:	55                   	push   %rbp
  603a2b:	48 89 e5             	mov    %rsp,%rbp
  603a2e:	48 81 ec 20 00 00 00 	sub    $0x20,%rsp
  603a35:	48 89 7d f8          	mov    %rdi,-0x8(%rbp)
  603a39:	48 89 75 f0          	mov    %rsi,-0x10(%rbp)
  603a3d:	48 89 55 e8          	mov    %rdx,-0x18(%rbp)
  603a41:	b8 00 00 00 00       	mov    $0x0,%eax
  603a46:	48 89 c6             	mov    %rax,%rsi
  603a49:	48 8b 45 f8          	mov    -0x8(%rbp),%rax
  603a4d:	48 89 c7             	mov    %rax,%rdi
  603a50:	b8 00 00 00 00       	mov    $0x0,%eax
  603a55:	e8 6e f8 ff ff       	call   6032c8 <__atomic_load_1>
  603a5a:	0f b6 c0             	movzbl %al,%eax
  603a5d:	88 45 e6             	mov    %al,-0x1a(%rbp)
  603a60:	0f b6 45 e6          	movzbl -0x1a(%rbp),%eax
  603a64:	0f b6 4d f0          	movzbl -0x10(%rbp),%ecx
  603a68:	21 c8                	and    %ecx,%eax
  603a6a:	83 f0 ff             	xor    $0xffffffff,%eax
  603a6d:	88 45 e7             	mov    %al,-0x19(%rbp)
  603a70:	b8 05 00 00 00       	mov    $0x5,%eax
  603a75:	49 89 c1             	mov    %rax,%r9
  603a78:	b8 05 00 00 00       	mov    $0x5,%eax
  603a7d:	49 89 c0             	mov    %rax,%r8
  603a80:	b8 01 00 00 00       	mov    $0x1,%eax
  603a85:	49 89 c3             	mov    %rax,%r11
  603a88:	0f b6 45 e7          	movzbl -0x19(%rbp),%eax
  603a8c:	49 89 c2             	mov    %rax,%r10
  603a8f:	48 8d 45 e6          	lea    -0x1a(%rbp),%rax
  603a93:	48 89 c6             	mov    %rax,%rsi
  603a96:	48 8b 45 f8          	mov    -0x8(%rbp),%rax
  603a9a:	48 89 c7             	mov    %rax,%rdi
  603a9d:	4c 89 d2             	mov    %r10,%rdx
  603aa0:	4c 89 d9             	mov    %r11,%rcx
  603aa3:	b8 00 00 00 00       	mov    $0x0,%eax
  603aa8:	e8 44 f8 ff ff       	call   6032f1 <__atomic_compare_exchange_1>
  603aad:	0f b6 c0             	movzbl %al,%eax
  603ab0:	83 f8 00             	cmp    $0x0,%eax
  603ab3:	0f 84 a7 ff ff ff    	je     603a60 <__atomic_fetch_nand_1+0x36>
  603ab9:	0f b6 45 e6          	movzbl -0x1a(%rbp),%eax
  603abd:	c9                   	leave
  603abe:	c3                   	ret

0000000000603abf <__atomic_store_2>:
  603abf:	55                   	push   %rbp
  603ac0:	48 89 e5             	mov    %rsp,%rbp
  603ac3:	48 81 ec 20 00 00 00 	sub    $0x20,%rsp
  603aca:	48 89 7d f8          	mov    %rdi,-0x8(%rbp)
  603ace:	48 89 75 f0          	mov    %rsi,-0x10(%rbp)
  603ad2:	48 89 55 e8          	mov    %rdx,-0x18(%rbp)
  603ad6:	48 8b 45 f8          	mov    -0x8(%rbp),%rax
  603ada:	0f b7 4d f0          	movzwl -0x10(%rbp),%ecx
  603ade:	66 89 08             	mov    %cx,(%rax)
  603ae1:	b8 04 00 00 00       	mov    $0x4,%eax
  603ae6:	48 89 c7             	mov    %rax,%rdi
  603ae9:	e8 1b 18 00 00       	call   605309 <__atomic_thread_fence>
  603aee:	c9                   	leave
  603aef:	c3                   	ret

0000000000603af0 <__atomic_load_2>:
  603af0:	55                   	push   %rbp
  603af1:	48 89 e5             	mov    %rsp,%rbp
  603af4:	48 81 ec 10 00 00 00 	sub    $0x10,%rsp
  603afb:	48 89 7d f8          	mov    %rdi,-0x8(%rbp)
  603aff:	48 89 75 f0          	mov    %rsi,-0x10(%rbp)
  603b03:	b8 02 00 00 00       	mov    $0x2,%eax
  603b08:	48 89 c7             	mov    %rax,%rdi
  603b0b:	e8 f9 17 00 00       	call   605309 <__atomic_thread_fence>
  603b10:	48 8b 45 f8          	mov    -0x8(%rbp),%rax
  603b14:	0f b7 00             	movzwl (%rax),%eax
  603b17:	c9                   	leave
  603b18:	c3                   	ret

0000000000603b19 <__atomic_compare_exchange_2>:
  603b19:	55                   	push   %rbp
  603b1a:	48 89 e5             	mov    %rsp,%rbp
  603b1d:	48 81 ec 40 00 00 00 	sub    $0x40,%rsp
  603b24:	48 89 7d f8          	mov    %rdi,-0x8(%rbp)
  603b28:	48 89 75 f0          	mov    %rsi,-0x10(%rbp)
  603b2c:	48 89 55 e8          	mov    %rdx,-0x18(%rbp)
  603b30:	48 89 4d e0          	mov    %rcx,-0x20(%rbp)
  603b34:	4c 89 45 d8          	mov    %r8,-0x28(%rbp)
  603b38:	4c 89 4d d0          	mov    %r9,-0x30(%rbp)
  603b3c:	48 8b 45 f0          	mov    -0x10(%rbp),%rax
  603b40:	0f b7 00             	movzwl (%rax),%eax
  603b43:	66 89 45 cc          	mov    %ax,-0x34(%rbp)
  603b47:	48 8b 45 f8          	mov    -0x8(%rbp),%rax
  603b4b:	48 89 45 c0          	mov    %rax,-0x40(%rbp)
  603b4f:	48 8b 55 c0          	mov    -0x40(%rbp),%rdx
  603b53:	0f b7 4d e8          	movzwl -0x18(%rbp),%ecx
  603b57:	0f b7 45 cc          	movzwl -0x34(%rbp),%eax
  603b5b:	f0 66 0f b1 0a       	lock cmpxchg %cx,(%rdx)
  603b60:	66 89 45 ce          	mov    %ax,-0x32(%rbp)
  603b64:	48 8b 45 f0          	mov    -0x10(%rbp),%rax
  603b68:	0f b7 4d ce          	movzwl -0x32(%rbp),%ecx
  603b6c:	66 89 08             	mov    %cx,(%rax)
  603b6f:	0f b7 45 ce          	movzwl -0x32(%rbp),%eax
  603b73:	0f b7 4d cc          	movzwl -0x34(%rbp),%ecx
  603b77:	39 c8                	cmp    %ecx,%eax
  603b79:	0f 94 c0             	sete   %al
  603b7c:	0f b6 c0             	movzbl %al,%eax
  603b7f:	c9                   	leave
  603b80:	c3                   	ret

0000000000603b81 <__atomic_exchange_2>:
  603b81:	55                   	push   %rbp
  603b82:	48 89 e5             	mov    %rsp,%rbp
  603b85:	48 81 ec 20 00 00 00 	sub    $0x20,%rsp
  603b8c:	48 89 7d f8          	mov    %rdi,-0x8(%rbp)
  603b90:	48 89 75 f0          	mov    %rsi,-0x10(%rbp)
  603b94:	48 89 55 e8          	mov    %rdx,-0x18(%rbp)
  603b98:	b8 00 00 00 00       	mov    $0x0,%eax
  603b9d:	48 89 c6             	mov    %rax,%rsi
  603ba0:	48 8b 45 f8          	mov    -0x8(%rbp),%rax
  603ba4:	48 89 c7             	mov    %rax,%rdi
  603ba7:	b8 00 00 00 00       	mov    $0x0,%eax
  603bac:	e8 3f ff ff ff       	call   603af0 <__atomic_load_2>
  603bb1:	0f b7 c0             	movzwl %ax,%eax
  603bb4:	66 89 45 e4          	mov    %ax,-0x1c(%rbp)
  603bb8:	0f b7 45 f0          	movzwl -0x10(%rbp),%eax
  603bbc:	66 89 45 e6          	mov    %ax,-0x1a(%rbp)
  603bc0:	b8 05 00 00 00       	mov    $0x5,%eax
  603bc5:	49 89 c1             	mov    %rax,%r9
  603bc8:	b8 05 00 00 00       	mov    $0x5,%eax
  603bcd:	49 89 c0             	mov    %rax,%r8
  603bd0:	b8 01 00 00 00       	mov    $0x1,%eax
  603bd5:	49 89 c3             	mov    %rax,%r11
  603bd8:	0f b7 45 e6          	movzwl -0x1a(%rbp),%eax
  603bdc:	49 89 c2             	mov    %rax,%r10
  603bdf:	48 8d 45 e4          	lea    -0x1c(%rbp),%rax
  603be3:	48 89 c6             	mov    %rax,%rsi
  603be6:	48 8b 45 f8          	mov    -0x8(%rbp),%rax
  603bea:	48 89 c7             	mov    %rax,%rdi
  603bed:	4c 89 d2             	mov    %r10,%rdx
  603bf0:	4c 89 d9             	mov    %r11,%rcx
  603bf3:	b8 00 00 00 00       	mov    $0x0,%eax
  603bf8:	e8 1c ff ff ff       	call   603b19 <__atomic_compare_exchange_2>
  603bfd:	0f b6 c0             	movzbl %al,%eax
  603c00:	83 f8 00             	cmp    $0x0,%eax
  603c03:	0f 84 af ff ff ff    	je     603bb8 <__atomic_exchange_2+0x37>
  603c09:	0f b7 45 e4          	movzwl -0x1c(%rbp),%eax
  603c0d:	c9                   	leave
  603c0e:	c3                   	ret

0000000000603c0f <__atomic_add_fetch_2>:
  603c0f:	55                   	push   %rbp
  603c10:	48 89 e5             	mov    %rsp,%rbp
  603c13:	48 81 ec 20 00 00 00 	sub    $0x20,%rsp
  603c1a:	48 89 7d f8          	mov    %rdi,-0x8(%rbp)
  603c1e:	48 89 75 f0          	mov    %rsi,-0x10(%rbp)
  603c22:	48 89 55 e8          	mov    %rdx,-0x18(%rbp)
  603c26:	b8 00 00 00 00       	mov    $0x0,%eax
  603c2b:	48 89 c6             	mov    %rax,%rsi
  603c2e:	48 8b 45 f8          	mov    -0x8(%rbp),%rax
  603c32:	48 89 c7             	mov    %rax,%rdi
  603c35:	b8 00 00 00 00       	mov    $0x0,%eax
  603c3a:	e8 b1 fe ff ff       	call   603af0 <__atomic_load_2>
  603c3f:	0f b7 c0             	movzwl %ax,%eax
  603c42:	66 89 45 e4          	mov    %ax,-0x1c(%rbp)
  603c46:	0f b7 45 e4          	movzwl -0x1c(%rbp),%eax
  603c4a:	0f b7 4d f0          	movzwl -0x10(%rbp),%ecx
  603c4e:	01 c8                	add    %ecx,%eax
  603c50:	66 89 45 e6          	mov    %ax,-0x1a(%rbp)
  603c54:	b8 05 00 00 00       	mov    $0x5,%eax
  603c59:	49 89 c1             	mov    %rax,%r9
  603c5c:	b8 05 00 00 00       	mov    $0x5,%eax
  603c61:	49 89 c0             	mov    %rax,%r8
  603c64:	b8 01 00 00 00       	mov    $0x1,%eax
  603c69:	49 89 c3             	mov    %rax,%r11
  603c6c:	0f b7 45 e6          	movzwl -0x1a(%rbp),%eax
  603c70:	49 89 c2             	mov    %rax,%r10
  603c73:	48 8d 45 e4          	lea    -0x1c(%rbp),%rax
  603c77:	48 89 c6             	mov    %rax,%rsi
  603c7a:	48 8b 45 f8          	mov    -0x8(%rbp),%rax
  603c7e:	48 89 c7             	mov    %rax,%rdi
  603c81:	4c 89 d2             	mov    %r10,%rdx
  603c84:	4c 89 d9             	mov    %r11,%rcx
  603c87:	b8 00 00 00 00       	mov    $0x0,%eax
  603c8c:	e8 88 fe ff ff       	call   603b19 <__atomic_compare_exchange_2>
  603c91:	0f b6 c0             	movzbl %al,%eax
  603c94:	83 f8 00             	cmp    $0x0,%eax
  603c97:	0f 84 a9 ff ff ff    	je     603c46 <__atomic_add_fetch_2+0x37>
  603c9d:	0f b7 45 e6          	movzwl -0x1a(%rbp),%eax
  603ca1:	c9                   	leave
  603ca2:	c3                   	ret

0000000000603ca3 <__atomic_sub_fetch_2>:
  603ca3:	55                   	push   %rbp
  603ca4:	48 89 e5             	mov    %rsp,%rbp
  603ca7:	48 81 ec 20 00 00 00 	sub    $0x20,%rsp
  603cae:	48 89 7d f8          	mov    %rdi,-0x8(%rbp)
  603cb2:	48 89 75 f0          	mov    %rsi,-0x10(%rbp)
  603cb6:	48 89 55 e8          	mov    %rdx,-0x18(%rbp)
  603cba:	b8 00 00 00 00       	mov    $0x0,%eax
  603cbf:	48 89 c6             	mov    %rax,%rsi
  603cc2:	48 8b 45 f8          	mov    -0x8(%rbp),%rax
  603cc6:	48 89 c7             	mov    %rax,%rdi
  603cc9:	b8 00 00 00 00       	mov    $0x0,%eax
  603cce:	e8 1d fe ff ff       	call   603af0 <__atomic_load_2>
  603cd3:	0f b7 c0             	movzwl %ax,%eax
  603cd6:	66 89 45 e4          	mov    %ax,-0x1c(%rbp)
  603cda:	0f b7 45 e4          	movzwl -0x1c(%rbp),%eax
  603cde:	0f b7 4d f0          	movzwl -0x10(%rbp),%ecx
  603ce2:	29 c8                	sub    %ecx,%eax
  603ce4:	66 89 45 e6          	mov    %ax,-0x1a(%rbp)
  603ce8:	b8 05 00 00 00       	mov    $0x5,%eax
  603ced:	49 89 c1             	mov    %rax,%r9
  603cf0:	b8 05 00 00 00       	mov    $0x5,%eax
  603cf5:	49 89 c0             	mov    %rax,%r8
  603cf8:	b8 01 00 00 00       	mov    $0x1,%eax
  603cfd:	49 89 c3             	mov    %rax,%r11
  603d00:	0f b7 45 e6          	movzwl -0x1a(%rbp),%eax
  603d04:	49 89 c2             	mov    %rax,%r10
  603d07:	48 8d 45 e4          	lea    -0x1c(%rbp),%rax
  603d0b:	48 89 c6             	mov    %rax,%rsi
  603d0e:	48 8b 45 f8          	mov    -0x8(%rbp),%rax
  603d12:	48 89 c7             	mov    %rax,%rdi
  603d15:	4c 89 d2             	mov    %r10,%rdx
  603d18:	4c 89 d9             	mov    %r11,%rcx
  603d1b:	b8 00 00 00 00       	mov    $0x0,%eax
  603d20:	e8 f4 fd ff ff       	call   603b19 <__atomic_compare_exchange_2>
  603d25:	0f b6 c0             	movzbl %al,%eax
  603d28:	83 f8 00             	cmp    $0x0,%eax
  603d2b:	0f 84 a9 ff ff ff    	je     603cda <__atomic_sub_fetch_2+0x37>
  603d31:	0f b7 45 e6          	movzwl -0x1a(%rbp),%eax
  603d35:	c9                   	leave
  603d36:	c3                   	ret

0000000000603d37 <__atomic_and_fetch_2>:
  603d37:	55                   	push   %rbp
  603d38:	48 89 e5             	mov    %rsp,%rbp
  603d3b:	48 81 ec 20 00 00 00 	sub    $0x20,%rsp
  603d42:	48 89 7d f8          	mov    %rdi,-0x8(%rbp)
  603d46:	48 89 75 f0          	mov    %rsi,-0x10(%rbp)
  603d4a:	48 89 55 e8          	mov    %rdx,-0x18(%rbp)
  603d4e:	b8 00 00 00 00       	mov    $0x0,%eax
  603d53:	48 89 c6             	mov    %rax,%rsi
  603d56:	48 8b 45 f8          	mov    -0x8(%rbp),%rax
  603d5a:	48 89 c7             	mov    %rax,%rdi
  603d5d:	b8 00 00 00 00       	mov    $0x0,%eax
  603d62:	e8 89 fd ff ff       	call   603af0 <__atomic_load_2>
  603d67:	0f b7 c0             	movzwl %ax,%eax
  603d6a:	66 89 45 e4          	mov    %ax,-0x1c(%rbp)
  603d6e:	0f b7 45 e4          	movzwl -0x1c(%rbp),%eax
  603d72:	0f b7 4d f0          	movzwl -0x10(%rbp),%ecx
  603d76:	21 c8                	and    %ecx,%eax
  603d78:	66 89 45 e6          	mov    %ax,-0x1a(%rbp)
  603d7c:	b8 05 00 00 00       	mov    $0x5,%eax
  603d81:	49 89 c1             	mov    %rax,%r9
  603d84:	b8 05 00 00 00       	mov    $0x5,%eax
  603d89:	49 89 c0             	mov    %rax,%r8
  603d8c:	b8 01 00 00 00       	mov    $0x1,%eax
  603d91:	49 89 c3             	mov    %rax,%r11
  603d94:	0f b7 45 e6          	movzwl -0x1a(%rbp),%eax
  603d98:	49 89 c2             	mov    %rax,%r10
  603d9b:	48 8d 45 e4          	lea    -0x1c(%rbp),%rax
  603d9f:	48 89 c6             	mov    %rax,%rsi
  603da2:	48 8b 45 f8          	mov    -0x8(%rbp),%rax
  603da6:	48 89 c7             	mov    %rax,%rdi
  603da9:	4c 89 d2             	mov    %r10,%rdx
  603dac:	4c 89 d9             	mov    %r11,%rcx
  603daf:	b8 00 00 00 00       	mov    $0x0,%eax
  603db4:	e8 60 fd ff ff       	call   603b19 <__atomic_compare_exchange_2>
  603db9:	0f b6 c0             	movzbl %al,%eax
  603dbc:	83 f8 00             	cmp    $0x0,%eax
  603dbf:	0f 84 a9 ff ff ff    	je     603d6e <__atomic_and_fetch_2+0x37>
  603dc5:	0f b7 45 e6          	movzwl -0x1a(%rbp),%eax
  603dc9:	c9                   	leave
  603dca:	c3                   	ret

0000000000603dcb <__atomic_or_fetch_2>:
  603dcb:	55                   	push   %rbp
  603dcc:	48 89 e5             	mov    %rsp,%rbp
  603dcf:	48 81 ec 20 00 00 00 	sub    $0x20,%rsp
  603dd6:	48 89 7d f8          	mov    %rdi,-0x8(%rbp)
  603dda:	48 89 75 f0          	mov    %rsi,-0x10(%rbp)
  603dde:	48 89 55 e8          	mov    %rdx,-0x18(%rbp)
  603de2:	b8 00 00 00 00       	mov    $0x0,%eax
  603de7:	48 89 c6             	mov    %rax,%rsi
  603dea:	48 8b 45 f8          	mov    -0x8(%rbp),%rax
  603dee:	48 89 c7             	mov    %rax,%rdi
  603df1:	b8 00 00 00 00       	mov    $0x0,%eax
  603df6:	e8 f5 fc ff ff       	call   603af0 <__atomic_load_2>
  603dfb:	0f b7 c0             	movzwl %ax,%eax
  603dfe:	66 89 45 e4          	mov    %ax,-0x1c(%rbp)
  603e02:	0f b7 45 e4          	movzwl -0x1c(%rbp),%eax
  603e06:	0f b7 4d f0          	movzwl -0x10(%rbp),%ecx
  603e0a:	09 c8                	or     %ecx,%eax
  603e0c:	66 89 45 e6          	mov    %ax,-0x1a(%rbp)
  603e10:	b8 05 00 00 00       	mov    $0x5,%eax
  603e15:	49 89 c1             	mov    %rax,%r9
  603e18:	b8 05 00 00 00       	mov    $0x5,%eax
  603e1d:	49 89 c0             	mov    %rax,%r8
  603e20:	b8 01 00 00 00       	mov    $0x1,%eax
  603e25:	49 89 c3             	mov    %rax,%r11
  603e28:	0f b7 45 e6          	movzwl -0x1a(%rbp),%eax
  603e2c:	49 89 c2             	mov    %rax,%r10
  603e2f:	48 8d 45 e4          	lea    -0x1c(%rbp),%rax
  603e33:	48 89 c6             	mov    %rax,%rsi
  603e36:	48 8b 45 f8          	mov    -0x8(%rbp),%rax
  603e3a:	48 89 c7             	mov    %rax,%rdi
  603e3d:	4c 89 d2             	mov    %r10,%rdx
  603e40:	4c 89 d9             	mov    %r11,%rcx
  603e43:	b8 00 00 00 00       	mov    $0x0,%eax
  603e48:	e8 cc fc ff ff       	call   603b19 <__atomic_compare_exchange_2>
  603e4d:	0f b6 c0             	movzbl %al,%eax
  603e50:	83 f8 00             	cmp    $0x0,%eax
  603e53:	0f 84 a9 ff ff ff    	je     603e02 <__atomic_or_fetch_2+0x37>
  603e59:	0f b7 45 e6          	movzwl -0x1a(%rbp),%eax
  603e5d:	c9                   	leave
  603e5e:	c3                   	ret

0000000000603e5f <__atomic_xor_fetch_2>:
  603e5f:	55                   	push   %rbp
  603e60:	48 89 e5             	mov    %rsp,%rbp
  603e63:	48 81 ec 20 00 00 00 	sub    $0x20,%rsp
  603e6a:	48 89 7d f8          	mov    %rdi,-0x8(%rbp)
  603e6e:	48 89 75 f0          	mov    %rsi,-0x10(%rbp)
  603e72:	48 89 55 e8          	mov    %rdx,-0x18(%rbp)
  603e76:	b8 00 00 00 00       	mov    $0x0,%eax
  603e7b:	48 89 c6             	mov    %rax,%rsi
  603e7e:	48 8b 45 f8          	mov    -0x8(%rbp),%rax
  603e82:	48 89 c7             	mov    %rax,%rdi
  603e85:	b8 00 00 00 00       	mov    $0x0,%eax
  603e8a:	e8 61 fc ff ff       	call   603af0 <__atomic_load_2>
  603e8f:	0f b7 c0             	movzwl %ax,%eax
  603e92:	66 89 45 e4          	mov    %ax,-0x1c(%rbp)
  603e96:	0f b7 45 e4          	movzwl -0x1c(%rbp),%eax
  603e9a:	0f b7 4d f0          	movzwl -0x10(%rbp),%ecx
  603e9e:	31 c8                	xor    %ecx,%eax
  603ea0:	66 89 45 e6          	mov    %ax,-0x1a(%rbp)
  603ea4:	b8 05 00 00 00       	mov    $0x5,%eax
  603ea9:	49 89 c1             	mov    %rax,%r9
  603eac:	b8 05 00 00 00       	mov    $0x5,%eax
  603eb1:	49 89 c0             	mov    %rax,%r8
  603eb4:	b8 01 00 00 00       	mov    $0x1,%eax
  603eb9:	49 89 c3             	mov    %rax,%r11
  603ebc:	0f b7 45 e6          	movzwl -0x1a(%rbp),%eax
  603ec0:	49 89 c2             	mov    %rax,%r10
  603ec3:	48 8d 45 e4          	lea    -0x1c(%rbp),%rax
  603ec7:	48 89 c6             	mov    %rax,%rsi
  603eca:	48 8b 45 f8          	mov    -0x8(%rbp),%rax
  603ece:	48 89 c7             	mov    %rax,%rdi
  603ed1:	4c 89 d2             	mov    %r10,%rdx
  603ed4:	4c 89 d9             	mov    %r11,%rcx
  603ed7:	b8 00 00 00 00       	mov    $0x0,%eax
  603edc:	e8 38 fc ff ff       	call   603b19 <__atomic_compare_exchange_2>
  603ee1:	0f b6 c0             	movzbl %al,%eax
  603ee4:	83 f8 00             	cmp    $0x0,%eax
  603ee7:	0f 84 a9 ff ff ff    	je     603e96 <__atomic_xor_fetch_2+0x37>
  603eed:	0f b7 45 e6          	movzwl -0x1a(%rbp),%eax
  603ef1:	c9                   	leave
  603ef2:	c3                   	ret

0000000000603ef3 <__atomic_nand_fetch_2>:
  603ef3:	55                   	push   %rbp
  603ef4:	48 89 e5             	mov    %rsp,%rbp
  603ef7:	48 81 ec 20 00 00 00 	sub    $0x20,%rsp
  603efe:	48 89 7d f8          	mov    %rdi,-0x8(%rbp)
  603f02:	48 89 75 f0          	mov    %rsi,-0x10(%rbp)
  603f06:	48 89 55 e8          	mov    %rdx,-0x18(%rbp)
  603f0a:	b8 00 00 00 00       	mov    $0x0,%eax
  603f0f:	48 89 c6             	mov    %rax,%rsi
  603f12:	48 8b 45 f8          	mov    -0x8(%rbp),%rax
  603f16:	48 89 c7             	mov    %rax,%rdi
  603f19:	b8 00 00 00 00       	mov    $0x0,%eax
  603f1e:	e8 cd fb ff ff       	call   603af0 <__atomic_load_2>
  603f23:	0f b7 c0             	movzwl %ax,%eax
  603f26:	66 89 45 e4          	mov    %ax,-0x1c(%rbp)
  603f2a:	0f b7 45 e4          	movzwl -0x1c(%rbp),%eax
  603f2e:	0f b7 4d f0          	movzwl -0x10(%rbp),%ecx
  603f32:	21 c8                	and    %ecx,%eax
  603f34:	83 f0 ff             	xor    $0xffffffff,%eax
  603f37:	66 89 45 e6          	mov    %ax,-0x1a(%rbp)
  603f3b:	b8 05 00 00 00       	mov    $0x5,%eax
  603f40:	49 89 c1             	mov    %rax,%r9
  603f43:	b8 05 00 00 00       	mov    $0x5,%eax
  603f48:	49 89 c0             	mov    %rax,%r8
  603f4b:	b8 01 00 00 00       	mov    $0x1,%eax
  603f50:	49 89 c3             	mov    %rax,%r11
  603f53:	0f b7 45 e6          	movzwl -0x1a(%rbp),%eax
  603f57:	49 89 c2             	mov    %rax,%r10
  603f5a:	48 8d 45 e4          	lea    -0x1c(%rbp),%rax
  603f5e:	48 89 c6             	mov    %rax,%rsi
  603f61:	48 8b 45 f8          	mov    -0x8(%rbp),%rax
  603f65:	48 89 c7             	mov    %rax,%rdi
  603f68:	4c 89 d2             	mov    %r10,%rdx
  603f6b:	4c 89 d9             	mov    %r11,%rcx
  603f6e:	b8 00 00 00 00       	mov    $0x0,%eax
  603f73:	e8 a1 fb ff ff       	call   603b19 <__atomic_compare_exchange_2>
  603f78:	0f b6 c0             	movzbl %al,%eax
  603f7b:	83 f8 00             	cmp    $0x0,%eax
  603f7e:	0f 84 a6 ff ff ff    	je     603f2a <__atomic_nand_fetch_2+0x37>
  603f84:	0f b7 45 e6          	movzwl -0x1a(%rbp),%eax
  603f88:	c9                   	leave
  603f89:	c3                   	ret

0000000000603f8a <__atomic_fetch_add_2>:
  603f8a:	55                   	push   %rbp
  603f8b:	48 89 e5             	mov    %rsp,%rbp
  603f8e:	48 81 ec 20 00 00 00 	sub    $0x20,%rsp
  603f95:	48 89 7d f8          	mov    %rdi,-0x8(%rbp)
  603f99:	48 89 75 f0          	mov    %rsi,-0x10(%rbp)
  603f9d:	48 89 55 e8          	mov    %rdx,-0x18(%rbp)
  603fa1:	b8 00 00 00 00       	mov    $0x0,%eax
  603fa6:	48 89 c6             	mov    %rax,%rsi
  603fa9:	48 8b 45 f8          	mov    -0x8(%rbp),%rax
  603fad:	48 89 c7             	mov    %rax,%rdi
  603fb0:	b8 00 00 00 00       	mov    $0x0,%eax
  603fb5:	e8 36 fb ff ff       	call   603af0 <__atomic_load_2>
  603fba:	0f b7 c0             	movzwl %ax,%eax
  603fbd:	66 89 45 e4          	mov    %ax,-0x1c(%rbp)
  603fc1:	0f b7 45 e4          	movzwl -0x1c(%rbp),%eax
  603fc5:	0f b7 4d f0          	movzwl -0x10(%rbp),%ecx
  603fc9:	01 c8                	add    %ecx,%eax
  603fcb:	66 89 45 e6          	mov    %ax,-0x1a(%rbp)
  603fcf:	b8 05 00 00 00       	mov    $0x5,%eax
  603fd4:	49 89 c1             	mov    %rax,%r9
  603fd7:	b8 05 00 00 00       	mov    $0x5,%eax
  603fdc:	49 89 c0             	mov    %rax,%r8
  603fdf:	b8 01 00 00 00       	mov    $0x1,%eax
  603fe4:	49 89 c3             	mov    %rax,%r11
  603fe7:	0f b7 45 e6          	movzwl -0x1a(%rbp),%eax
  603feb:	49 89 c2             	mov    %rax,%r10
  603fee:	48 8d 45 e4          	lea    -0x1c(%rbp),%rax
  603ff2:	48 89 c6             	mov    %rax,%rsi
  603ff5:	48 8b 45 f8          	mov    -0x8(%rbp),%rax
  603ff9:	48 89 c7             	mov    %rax,%rdi
  603ffc:	4c 89 d2             	mov    %r10,%rdx
  603fff:	4c 89 d9             	mov    %r11,%rcx
  604002:	b8 00 00 00 00       	mov    $0x0,%eax
  604007:	e8 0d fb ff ff       	call   603b19 <__atomic_compare_exchange_2>
  60400c:	0f b6 c0             	movzbl %al,%eax
  60400f:	83 f8 00             	cmp    $0x0,%eax
  604012:	0f 84 a9 ff ff ff    	je     603fc1 <__atomic_fetch_add_2+0x37>
  604018:	0f b7 45 e4          	movzwl -0x1c(%rbp),%eax
  60401c:	c9                   	leave
  60401d:	c3                   	ret

000000000060401e <__atomic_fetch_sub_2>:
  60401e:	55                   	push   %rbp
  60401f:	48 89 e5             	mov    %rsp,%rbp
  604022:	48 81 ec 20 00 00 00 	sub    $0x20,%rsp
  604029:	48 89 7d f8          	mov    %rdi,-0x8(%rbp)
  60402d:	48 89 75 f0          	mov    %rsi,-0x10(%rbp)
  604031:	48 89 55 e8          	mov    %rdx,-0x18(%rbp)
  604035:	b8 00 00 00 00       	mov    $0x0,%eax
  60403a:	48 89 c6             	mov    %rax,%rsi
  60403d:	48 8b 45 f8          	mov    -0x8(%rbp),%rax
  604041:	48 89 c7             	mov    %rax,%rdi
  604044:	b8 00 00 00 00       	mov    $0x0,%eax
  604049:	e8 a2 fa ff ff       	call   603af0 <__atomic_load_2>
  60404e:	0f b7 c0             	movzwl %ax,%eax
  604051:	66 89 45 e4          	mov    %ax,-0x1c(%rbp)
  604055:	0f b7 45 e4          	movzwl -0x1c(%rbp),%eax
  604059:	0f b7 4d f0          	movzwl -0x10(%rbp),%ecx
  60405d:	29 c8                	sub    %ecx,%eax
  60405f:	66 89 45 e6          	mov    %ax,-0x1a(%rbp)
  604063:	b8 05 00 00 00       	mov    $0x5,%eax
  604068:	49 89 c1             	mov    %rax,%r9
  60406b:	b8 05 00 00 00       	mov    $0x5,%eax
  604070:	49 89 c0             	mov    %rax,%r8
  604073:	b8 01 00 00 00       	mov    $0x1,%eax
  604078:	49 89 c3             	mov    %rax,%r11
  60407b:	0f b7 45 e6          	movzwl -0x1a(%rbp),%eax
  60407f:	49 89 c2             	mov    %rax,%r10
  604082:	48 8d 45 e4          	lea    -0x1c(%rbp),%rax
  604086:	48 89 c6             	mov    %rax,%rsi
  604089:	48 8b 45 f8          	mov    -0x8(%rbp),%rax
  60408d:	48 89 c7             	mov    %rax,%rdi
  604090:	4c 89 d2             	mov    %r10,%rdx
  604093:	4c 89 d9             	mov    %r11,%rcx
  604096:	b8 00 00 00 00       	mov    $0x0,%eax
  60409b:	e8 79 fa ff ff       	call   603b19 <__atomic_compare_exchange_2>
  6040a0:	0f b6 c0             	movzbl %al,%eax
  6040a3:	83 f8 00             	cmp    $0x0,%eax
  6040a6:	0f 84 a9 ff ff ff    	je     604055 <__atomic_fetch_sub_2+0x37>
  6040ac:	0f b7 45 e4          	movzwl -0x1c(%rbp),%eax
  6040b0:	c9                   	leave
  6040b1:	c3                   	ret

00000000006040b2 <__atomic_fetch_and_2>:
  6040b2:	55                   	push   %rbp
  6040b3:	48 89 e5             	mov    %rsp,%rbp
  6040b6:	48 81 ec 20 00 00 00 	sub    $0x20,%rsp
  6040bd:	48 89 7d f8          	mov    %rdi,-0x8(%rbp)
  6040c1:	48 89 75 f0          	mov    %rsi,-0x10(%rbp)
  6040c5:	48 89 55 e8          	mov    %rdx,-0x18(%rbp)
  6040c9:	b8 00 00 00 00       	mov    $0x0,%eax
  6040ce:	48 89 c6             	mov    %rax,%rsi
  6040d1:	48 8b 45 f8          	mov    -0x8(%rbp),%rax
  6040d5:	48 89 c7             	mov    %rax,%rdi
  6040d8:	b8 00 00 00 00       	mov    $0x0,%eax
  6040dd:	e8 0e fa ff ff       	call   603af0 <__atomic_load_2>
  6040e2:	0f b7 c0             	movzwl %ax,%eax
  6040e5:	66 89 45 e4          	mov    %ax,-0x1c(%rbp)
  6040e9:	0f b7 45 e4          	movzwl -0x1c(%rbp),%eax
  6040ed:	0f b7 4d f0          	movzwl -0x10(%rbp),%ecx
  6040f1:	21 c8                	and    %ecx,%eax
  6040f3:	66 89 45 e6          	mov    %ax,-0x1a(%rbp)
  6040f7:	b8 05 00 00 00       	mov    $0x5,%eax
  6040fc:	49 89 c1             	mov    %rax,%r9
  6040ff:	b8 05 00 00 00       	mov    $0x5,%eax
  604104:	49 89 c0             	mov    %rax,%r8
  604107:	b8 01 00 00 00       	mov    $0x1,%eax
  60410c:	49 89 c3             	mov    %rax,%r11
  60410f:	0f b7 45 e6          	movzwl -0x1a(%rbp),%eax
  604113:	49 89 c2             	mov    %rax,%r10
  604116:	48 8d 45 e4          	lea    -0x1c(%rbp),%rax
  60411a:	48 89 c6             	mov    %rax,%rsi
  60411d:	48 8b 45 f8          	mov    -0x8(%rbp),%rax
  604121:	48 89 c7             	mov    %rax,%rdi
  604124:	4c 89 d2             	mov    %r10,%rdx
  604127:	4c 89 d9             	mov    %r11,%rcx
  60412a:	b8 00 00 00 00       	mov    $0x0,%eax
  60412f:	e8 e5 f9 ff ff       	call   603b19 <__atomic_compare_exchange_2>
  604134:	0f b6 c0             	movzbl %al,%eax
  604137:	83 f8 00             	cmp    $0x0,%eax
  60413a:	0f 84 a9 ff ff ff    	je     6040e9 <__atomic_fetch_and_2+0x37>
  604140:	0f b7 45 e4          	movzwl -0x1c(%rbp),%eax
  604144:	c9                   	leave
  604145:	c3                   	ret

0000000000604146 <__atomic_fetch_or_2>:
  604146:	55                   	push   %rbp
  604147:	48 89 e5             	mov    %rsp,%rbp
  60414a:	48 81 ec 20 00 00 00 	sub    $0x20,%rsp
  604151:	48 89 7d f8          	mov    %rdi,-0x8(%rbp)
  604155:	48 89 75 f0          	mov    %rsi,-0x10(%rbp)
  604159:	48 89 55 e8          	mov    %rdx,-0x18(%rbp)
  60415d:	b8 00 00 00 00       	mov    $0x0,%eax
  604162:	48 89 c6             	mov    %rax,%rsi
  604165:	48 8b 45 f8          	mov    -0x8(%rbp),%rax
  604169:	48 89 c7             	mov    %rax,%rdi
  60416c:	b8 00 00 00 00       	mov    $0x0,%eax
  604171:	e8 7a f9 ff ff       	call   603af0 <__atomic_load_2>
  604176:	0f b7 c0             	movzwl %ax,%eax
  604179:	66 89 45 e4          	mov    %ax,-0x1c(%rbp)
  60417d:	0f b7 45 e4          	movzwl -0x1c(%rbp),%eax
  604181:	0f b7 4d f0          	movzwl -0x10(%rbp),%ecx
  604185:	09 c8                	or     %ecx,%eax
  604187:	66 89 45 e6          	mov    %ax,-0x1a(%rbp)
  60418b:	b8 05 00 00 00       	mov    $0x5,%eax
  604190:	49 89 c1             	mov    %rax,%r9
  604193:	b8 05 00 00 00       	mov    $0x5,%eax
  604198:	49 89 c0             	mov    %rax,%r8
  60419b:	b8 01 00 00 00       	mov    $0x1,%eax
  6041a0:	49 89 c3             	mov    %rax,%r11
  6041a3:	0f b7 45 e6          	movzwl -0x1a(%rbp),%eax
  6041a7:	49 89 c2             	mov    %rax,%r10
  6041aa:	48 8d 45 e4          	lea    -0x1c(%rbp),%rax
  6041ae:	48 89 c6             	mov    %rax,%rsi
  6041b1:	48 8b 45 f8          	mov    -0x8(%rbp),%rax
  6041b5:	48 89 c7             	mov    %rax,%rdi
  6041b8:	4c 89 d2             	mov    %r10,%rdx
  6041bb:	4c 89 d9             	mov    %r11,%rcx
  6041be:	b8 00 00 00 00       	mov    $0x0,%eax
  6041c3:	e8 51 f9 ff ff       	call   603b19 <__atomic_compare_exchange_2>
  6041c8:	0f b6 c0             	movzbl %al,%eax
  6041cb:	83 f8 00             	cmp    $0x0,%eax
  6041ce:	0f 84 a9 ff ff ff    	je     60417d <__atomic_fetch_or_2+0x37>
  6041d4:	0f b7 45 e4          	movzwl -0x1c(%rbp),%eax
  6041d8:	c9                   	leave
  6041d9:	c3                   	ret

00000000006041da <__atomic_fetch_xor_2>:
  6041da:	55                   	push   %rbp
  6041db:	48 89 e5             	mov    %rsp,%rbp
  6041de:	48 81 ec 20 00 00 00 	sub    $0x20,%rsp
  6041e5:	48 89 7d f8          	mov    %rdi,-0x8(%rbp)
  6041e9:	48 89 75 f0          	mov    %rsi,-0x10(%rbp)
  6041ed:	48 89 55 e8          	mov    %rdx,-0x18(%rbp)
  6041f1:	b8 00 00 00 00       	mov    $0x0,%eax
  6041f6:	48 89 c6             	mov    %rax,%rsi
  6041f9:	48 8b 45 f8          	mov    -0x8(%rbp),%rax
  6041fd:	48 89 c7             	mov    %rax,%rdi
  604200:	b8 00 00 00 00       	mov    $0x0,%eax
  604205:	e8 e6 f8 ff ff       	call   603af0 <__atomic_load_2>
  60420a:	0f b7 c0             	movzwl %ax,%eax
  60420d:	66 89 45 e4          	mov    %ax,-0x1c(%rbp)
  604211:	0f b7 45 e4          	movzwl -0x1c(%rbp),%eax
  604215:	0f b7 4d f0          	movzwl -0x10(%rbp),%ecx
  604219:	31 c8                	xor    %ecx,%eax
  60421b:	66 89 45 e6          	mov    %ax,-0x1a(%rbp)
  60421f:	b8 05 00 00 00       	mov    $0x5,%eax
  604224:	49 89 c1             	mov    %rax,%r9
  604227:	b8 05 00 00 00       	mov    $0x5,%eax
  60422c:	49 89 c0             	mov    %rax,%r8
  60422f:	b8 01 00 00 00       	mov    $0x1,%eax
  604234:	49 89 c3             	mov    %rax,%r11
  604237:	0f b7 45 e6          	movzwl -0x1a(%rbp),%eax
  60423b:	49 89 c2             	mov    %rax,%r10
  60423e:	48 8d 45 e4          	lea    -0x1c(%rbp),%rax
  604242:	48 89 c6             	mov    %rax,%rsi
  604245:	48 8b 45 f8          	mov    -0x8(%rbp),%rax
  604249:	48 89 c7             	mov    %rax,%rdi
  60424c:	4c 89 d2             	mov    %r10,%rdx
  60424f:	4c 89 d9             	mov    %r11,%rcx
  604252:	b8 00 00 00 00       	mov    $0x0,%eax
  604257:	e8 bd f8 ff ff       	call   603b19 <__atomic_compare_exchange_2>
  60425c:	0f b6 c0             	movzbl %al,%eax
  60425f:	83 f8 00             	cmp    $0x0,%eax
  604262:	0f 84 a9 ff ff ff    	je     604211 <__atomic_fetch_xor_2+0x37>
  604268:	0f b7 45 e4          	movzwl -0x1c(%rbp),%eax
  60426c:	c9                   	leave
  60426d:	c3                   	ret

000000000060426e <__atomic_fetch_nand_2>:
  60426e:	55                   	push   %rbp
  60426f:	48 89 e5             	mov    %rsp,%rbp
  604272:	48 81 ec 20 00 00 00 	sub    $0x20,%rsp
  604279:	48 89 7d f8          	mov    %rdi,-0x8(%rbp)
  60427d:	48 89 75 f0          	mov    %rsi,-0x10(%rbp)
  604281:	48 89 55 e8          	mov    %rdx,-0x18(%rbp)
  604285:	b8 00 00 00 00       	mov    $0x0,%eax
  60428a:	48 89 c6             	mov    %rax,%rsi
  60428d:	48 8b 45 f8          	mov    -0x8(%rbp),%rax
  604291:	48 89 c7             	mov    %rax,%rdi
  604294:	b8 00 00 00 00       	mov    $0x0,%eax
  604299:	e8 52 f8 ff ff       	call   603af0 <__atomic_load_2>
  60429e:	0f b7 c0             	movzwl %ax,%eax
  6042a1:	66 89 45 e4          	mov    %ax,-0x1c(%rbp)
  6042a5:	0f b7 45 e4          	movzwl -0x1c(%rbp),%eax
  6042a9:	0f b7 4d f0          	movzwl -0x10(%rbp),%ecx
  6042ad:	21 c8                	and    %ecx,%eax
  6042af:	83 f0 ff             	xor    $0xffffffff,%eax
  6042b2:	66 89 45 e6          	mov    %ax,-0x1a(%rbp)
  6042b6:	b8 05 00 00 00       	mov    $0x5,%eax
  6042bb:	49 89 c1             	mov    %rax,%r9
  6042be:	b8 05 00 00 00       	mov    $0x5,%eax
  6042c3:	49 89 c0             	mov    %rax,%r8
  6042c6:	b8 01 00 00 00       	mov    $0x1,%eax
  6042cb:	49 89 c3             	mov    %rax,%r11
  6042ce:	0f b7 45 e6          	movzwl -0x1a(%rbp),%eax
  6042d2:	49 89 c2             	mov    %rax,%r10
  6042d5:	48 8d 45 e4          	lea    -0x1c(%rbp),%rax
  6042d9:	48 89 c6             	mov    %rax,%rsi
  6042dc:	48 8b 45 f8          	mov    -0x8(%rbp),%rax
  6042e0:	48 89 c7             	mov    %rax,%rdi
  6042e3:	4c 89 d2             	mov    %r10,%rdx
  6042e6:	4c 89 d9             	mov    %r11,%rcx
  6042e9:	b8 00 00 00 00       	mov    $0x0,%eax
  6042ee:	e8 26 f8 ff ff       	call   603b19 <__atomic_compare_exchange_2>
  6042f3:	0f b6 c0             	movzbl %al,%eax
  6042f6:	83 f8 00             	cmp    $0x0,%eax
  6042f9:	0f 84 a6 ff ff ff    	je     6042a5 <__atomic_fetch_nand_2+0x37>
  6042ff:	0f b7 45 e4          	movzwl -0x1c(%rbp),%eax
  604303:	c9                   	leave
  604304:	c3                   	ret

0000000000604305 <__atomic_store_4>:
  604305:	55                   	push   %rbp
  604306:	48 89 e5             	mov    %rsp,%rbp
  604309:	48 81 ec 20 00 00 00 	sub    $0x20,%rsp
  604310:	48 89 7d f8          	mov    %rdi,-0x8(%rbp)
  604314:	48 89 75 f0          	mov    %rsi,-0x10(%rbp)
  604318:	48 89 55 e8          	mov    %rdx,-0x18(%rbp)
  60431c:	48 8b 45 f8          	mov    -0x8(%rbp),%rax
  604320:	8b 4d f0             	mov    -0x10(%rbp),%ecx
  604323:	89 08                	mov    %ecx,(%rax)
  604325:	b8 04 00 00 00       	mov    $0x4,%eax
  60432a:	48 89 c7             	mov    %rax,%rdi
  60432d:	e8 d7 0f 00 00       	call   605309 <__atomic_thread_fence>
  604332:	c9                   	leave
  604333:	c3                   	ret

0000000000604334 <__atomic_load_4>:
  604334:	55                   	push   %rbp
  604335:	48 89 e5             	mov    %rsp,%rbp
  604338:	48 81 ec 10 00 00 00 	sub    $0x10,%rsp
  60433f:	48 89 7d f8          	mov    %rdi,-0x8(%rbp)
  604343:	48 89 75 f0          	mov    %rsi,-0x10(%rbp)
  604347:	b8 02 00 00 00       	mov    $0x2,%eax
  60434c:	48 89 c7             	mov    %rax,%rdi
  60434f:	e8 b5 0f 00 00       	call   605309 <__atomic_thread_fence>
  604354:	48 8b 45 f8          	mov    -0x8(%rbp),%rax
  604358:	8b 00                	mov    (%rax),%eax
  60435a:	c9                   	leave
  60435b:	c3                   	ret

000000000060435c <__atomic_compare_exchange_4>:
  60435c:	55                   	push   %rbp
  60435d:	48 89 e5             	mov    %rsp,%rbp
  604360:	48 81 ec 40 00 00 00 	sub    $0x40,%rsp
  604367:	48 89 7d f8          	mov    %rdi,-0x8(%rbp)
  60436b:	48 89 75 f0          	mov    %rsi,-0x10(%rbp)
  60436f:	48 89 55 e8          	mov    %rdx,-0x18(%rbp)
  604373:	48 89 4d e0          	mov    %rcx,-0x20(%rbp)
  604377:	4c 89 45 d8          	mov    %r8,-0x28(%rbp)
  60437b:	4c 89 4d d0          	mov    %r9,-0x30(%rbp)
  60437f:	48 8b 45 f0          	mov    -0x10(%rbp),%rax
  604383:	8b 00                	mov    (%rax),%eax
  604385:	89 45 c8             	mov    %eax,-0x38(%rbp)
  604388:	48 8b 45 f8          	mov    -0x8(%rbp),%rax
  60438c:	48 89 45 c0          	mov    %rax,-0x40(%rbp)
  604390:	48 8b 55 c0          	mov    -0x40(%rbp),%rdx
  604394:	8b 4d e8             	mov    -0x18(%rbp),%ecx
  604397:	8b 45 c8             	mov    -0x38(%rbp),%eax
  60439a:	f0 0f b1 0a          	lock cmpxchg %ecx,(%rdx)
  60439e:	89 45 cc             	mov    %eax,-0x34(%rbp)
  6043a1:	48 8b 45 f0          	mov    -0x10(%rbp),%rax
  6043a5:	8b 4d cc             	mov    -0x34(%rbp),%ecx
  6043a8:	89 08                	mov    %ecx,(%rax)
  6043aa:	8b 45 cc             	mov    -0x34(%rbp),%eax
  6043ad:	8b 4d c8             	mov    -0x38(%rbp),%ecx
  6043b0:	39 c8                	cmp    %ecx,%eax
  6043b2:	0f 94 c0             	sete   %al
  6043b5:	0f b6 c0             	movzbl %al,%eax
  6043b8:	c9                   	leave
  6043b9:	c3                   	ret

00000000006043ba <__atomic_exchange_4>:
  6043ba:	55                   	push   %rbp
  6043bb:	48 89 e5             	mov    %rsp,%rbp
  6043be:	48 81 ec 20 00 00 00 	sub    $0x20,%rsp
  6043c5:	48 89 7d f8          	mov    %rdi,-0x8(%rbp)
  6043c9:	48 89 75 f0          	mov    %rsi,-0x10(%rbp)
  6043cd:	48 89 55 e8          	mov    %rdx,-0x18(%rbp)
  6043d1:	b8 00 00 00 00       	mov    $0x0,%eax
  6043d6:	48 89 c6             	mov    %rax,%rsi
  6043d9:	48 8b 45 f8          	mov    -0x8(%rbp),%rax
  6043dd:	48 89 c7             	mov    %rax,%rdi
  6043e0:	b8 00 00 00 00       	mov    $0x0,%eax
  6043e5:	e8 4a ff ff ff       	call   604334 <__atomic_load_4>
  6043ea:	89 45 e0             	mov    %eax,-0x20(%rbp)
  6043ed:	8b 45 f0             	mov    -0x10(%rbp),%eax
  6043f0:	89 45 e4             	mov    %eax,-0x1c(%rbp)
  6043f3:	b8 05 00 00 00       	mov    $0x5,%eax
  6043f8:	49 89 c1             	mov    %rax,%r9
  6043fb:	b8 05 00 00 00       	mov    $0x5,%eax
  604400:	49 89 c0             	mov    %rax,%r8
  604403:	b8 01 00 00 00       	mov    $0x1,%eax
  604408:	49 89 c3             	mov    %rax,%r11
  60440b:	8b 45 e4             	mov    -0x1c(%rbp),%eax
  60440e:	49 89 c2             	mov    %rax,%r10
  604411:	48 8d 45 e0          	lea    -0x20(%rbp),%rax
  604415:	48 89 c6             	mov    %rax,%rsi
  604418:	48 8b 45 f8          	mov    -0x8(%rbp),%rax
  60441c:	48 89 c7             	mov    %rax,%rdi
  60441f:	4c 89 d2             	mov    %r10,%rdx
  604422:	4c 89 d9             	mov    %r11,%rcx
  604425:	b8 00 00 00 00       	mov    $0x0,%eax
  60442a:	e8 2d ff ff ff       	call   60435c <__atomic_compare_exchange_4>
  60442f:	0f b6 c0             	movzbl %al,%eax
  604432:	83 f8 00             	cmp    $0x0,%eax
  604435:	0f 84 b2 ff ff ff    	je     6043ed <__atomic_exchange_4+0x33>
  60443b:	8b 45 e0             	mov    -0x20(%rbp),%eax
  60443e:	c9                   	leave
  60443f:	c3                   	ret

0000000000604440 <__atomic_add_fetch_4>:
  604440:	55                   	push   %rbp
  604441:	48 89 e5             	mov    %rsp,%rbp
  604444:	48 81 ec 20 00 00 00 	sub    $0x20,%rsp
  60444b:	48 89 7d f8          	mov    %rdi,-0x8(%rbp)
  60444f:	48 89 75 f0          	mov    %rsi,-0x10(%rbp)
  604453:	48 89 55 e8          	mov    %rdx,-0x18(%rbp)
  604457:	b8 00 00 00 00       	mov    $0x0,%eax
  60445c:	48 89 c6             	mov    %rax,%rsi
  60445f:	48 8b 45 f8          	mov    -0x8(%rbp),%rax
  604463:	48 89 c7             	mov    %rax,%rdi
  604466:	b8 00 00 00 00       	mov    $0x0,%eax
  60446b:	e8 c4 fe ff ff       	call   604334 <__atomic_load_4>
  604470:	89 45 e0             	mov    %eax,-0x20(%rbp)
  604473:	8b 45 e0             	mov    -0x20(%rbp),%eax
  604476:	8b 4d f0             	mov    -0x10(%rbp),%ecx
  604479:	01 c8                	add    %ecx,%eax
  60447b:	89 45 e4             	mov    %eax,-0x1c(%rbp)
  60447e:	b8 05 00 00 00       	mov    $0x5,%eax
  604483:	49 89 c1             	mov    %rax,%r9
  604486:	b8 05 00 00 00       	mov    $0x5,%eax
  60448b:	49 89 c0             	mov    %rax,%r8
  60448e:	b8 01 00 00 00       	mov    $0x1,%eax
  604493:	49 89 c3             	mov    %rax,%r11
  604496:	8b 45 e4             	mov    -0x1c(%rbp),%eax
  604499:	49 89 c2             	mov    %rax,%r10
  60449c:	48 8d 45 e0          	lea    -0x20(%rbp),%rax
  6044a0:	48 89 c6             	mov    %rax,%rsi
  6044a3:	48 8b 45 f8          	mov    -0x8(%rbp),%rax
  6044a7:	48 89 c7             	mov    %rax,%rdi
  6044aa:	4c 89 d2             	mov    %r10,%rdx
  6044ad:	4c 89 d9             	mov    %r11,%rcx
  6044b0:	b8 00 00 00 00       	mov    $0x0,%eax
  6044b5:	e8 a2 fe ff ff       	call   60435c <__atomic_compare_exchange_4>
  6044ba:	0f b6 c0             	movzbl %al,%eax
  6044bd:	83 f8 00             	cmp    $0x0,%eax
  6044c0:	0f 84 ad ff ff ff    	je     604473 <__atomic_add_fetch_4+0x33>
  6044c6:	8b 45 e4             	mov    -0x1c(%rbp),%eax
  6044c9:	c9                   	leave
  6044ca:	c3                   	ret

00000000006044cb <__atomic_sub_fetch_4>:
  6044cb:	55                   	push   %rbp
  6044cc:	48 89 e5             	mov    %rsp,%rbp
  6044cf:	48 81 ec 20 00 00 00 	sub    $0x20,%rsp
  6044d6:	48 89 7d f8          	mov    %rdi,-0x8(%rbp)
  6044da:	48 89 75 f0          	mov    %rsi,-0x10(%rbp)
  6044de:	48 89 55 e8          	mov    %rdx,-0x18(%rbp)
  6044e2:	b8 00 00 00 00       	mov    $0x0,%eax
  6044e7:	48 89 c6             	mov    %rax,%rsi
  6044ea:	48 8b 45 f8          	mov    -0x8(%rbp),%rax
  6044ee:	48 89 c7             	mov    %rax,%rdi
  6044f1:	b8 00 00 00 00       	mov    $0x0,%eax
  6044f6:	e8 39 fe ff ff       	call   604334 <__atomic_load_4>
  6044fb:	89 45 e0             	mov    %eax,-0x20(%rbp)
  6044fe:	8b 45 e0             	mov    -0x20(%rbp),%eax
  604501:	8b 4d f0             	mov    -0x10(%rbp),%ecx
  604504:	29 c8                	sub    %ecx,%eax
  604506:	89 45 e4             	mov    %eax,-0x1c(%rbp)
  604509:	b8 05 00 00 00       	mov    $0x5,%eax
  60450e:	49 89 c1             	mov    %rax,%r9
  604511:	b8 05 00 00 00       	mov    $0x5,%eax
  604516:	49 89 c0             	mov    %rax,%r8
  604519:	b8 01 00 00 00       	mov    $0x1,%eax
  60451e:	49 89 c3             	mov    %rax,%r11
  604521:	8b 45 e4             	mov    -0x1c(%rbp),%eax
  604524:	49 89 c2             	mov    %rax,%r10
  604527:	48 8d 45 e0          	lea    -0x20(%rbp),%rax
  60452b:	48 89 c6             	mov    %rax,%rsi
  60452e:	48 8b 45 f8          	mov    -0x8(%rbp),%rax
  604532:	48 89 c7             	mov    %rax,%rdi
  604535:	4c 89 d2             	mov    %r10,%rdx
  604538:	4c 89 d9             	mov    %r11,%rcx
  60453b:	b8 00 00 00 00       	mov    $0x0,%eax
  604540:	e8 17 fe ff ff       	call   60435c <__atomic_compare_exchange_4>
  604545:	0f b6 c0             	movzbl %al,%eax
  604548:	83 f8 00             	cmp    $0x0,%eax
  60454b:	0f 84 ad ff ff ff    	je     6044fe <__atomic_sub_fetch_4+0x33>
  604551:	8b 45 e4             	mov    -0x1c(%rbp),%eax
  604554:	c9                   	leave
  604555:	c3                   	ret

0000000000604556 <__atomic_and_fetch_4>:
  604556:	55                   	push   %rbp
  604557:	48 89 e5             	mov    %rsp,%rbp
  60455a:	48 81 ec 20 00 00 00 	sub    $0x20,%rsp
  604561:	48 89 7d f8          	mov    %rdi,-0x8(%rbp)
  604565:	48 89 75 f0          	mov    %rsi,-0x10(%rbp)
  604569:	48 89 55 e8          	mov    %rdx,-0x18(%rbp)
  60456d:	b8 00 00 00 00       	mov    $0x0,%eax
  604572:	48 89 c6             	mov    %rax,%rsi
  604575:	48 8b 45 f8          	mov    -0x8(%rbp),%rax
  604579:	48 89 c7             	mov    %rax,%rdi
  60457c:	b8 00 00 00 00       	mov    $0x0,%eax
  604581:	e8 ae fd ff ff       	call   604334 <__atomic_load_4>
  604586:	89 45 e0             	mov    %eax,-0x20(%rbp)
  604589:	8b 45 e0             	mov    -0x20(%rbp),%eax
  60458c:	8b 4d f0             	mov    -0x10(%rbp),%ecx
  60458f:	21 c8                	and    %ecx,%eax
  604591:	89 45 e4             	mov    %eax,-0x1c(%rbp)
  604594:	b8 05 00 00 00       	mov    $0x5,%eax
  604599:	49 89 c1             	mov    %rax,%r9
  60459c:	b8 05 00 00 00       	mov    $0x5,%eax
  6045a1:	49 89 c0             	mov    %rax,%r8
  6045a4:	b8 01 00 00 00       	mov    $0x1,%eax
  6045a9:	49 89 c3             	mov    %rax,%r11
  6045ac:	8b 45 e4             	mov    -0x1c(%rbp),%eax
  6045af:	49 89 c2             	mov    %rax,%r10
  6045b2:	48 8d 45 e0          	lea    -0x20(%rbp),%rax
  6045b6:	48 89 c6             	mov    %rax,%rsi
  6045b9:	48 8b 45 f8          	mov    -0x8(%rbp),%rax
  6045bd:	48 89 c7             	mov    %rax,%rdi
  6045c0:	4c 89 d2             	mov    %r10,%rdx
  6045c3:	4c 89 d9             	mov    %r11,%rcx
  6045c6:	b8 00 00 00 00       	mov    $0x0,%eax
  6045cb:	e8 8c fd ff ff       	call   60435c <__atomic_compare_exchange_4>
  6045d0:	0f b6 c0             	movzbl %al,%eax
  6045d3:	83 f8 00             	cmp    $0x0,%eax
  6045d6:	0f 84 ad ff ff ff    	je     604589 <__atomic_and_fetch_4+0x33>
  6045dc:	8b 45 e4             	mov    -0x1c(%rbp),%eax
  6045df:	c9                   	leave
  6045e0:	c3                   	ret

00000000006045e1 <__atomic_or_fetch_4>:
  6045e1:	55                   	push   %rbp
  6045e2:	48 89 e5             	mov    %rsp,%rbp
  6045e5:	48 81 ec 20 00 00 00 	sub    $0x20,%rsp
  6045ec:	48 89 7d f8          	mov    %rdi,-0x8(%rbp)
  6045f0:	48 89 75 f0          	mov    %rsi,-0x10(%rbp)
  6045f4:	48 89 55 e8          	mov    %rdx,-0x18(%rbp)
  6045f8:	b8 00 00 00 00       	mov    $0x0,%eax
  6045fd:	48 89 c6             	mov    %rax,%rsi
  604600:	48 8b 45 f8          	mov    -0x8(%rbp),%rax
  604604:	48 89 c7             	mov    %rax,%rdi
  604607:	b8 00 00 00 00       	mov    $0x0,%eax
  60460c:	e8 23 fd ff ff       	call   604334 <__atomic_load_4>
  604611:	89 45 e0             	mov    %eax,-0x20(%rbp)
  604614:	8b 45 e0             	mov    -0x20(%rbp),%eax
  604617:	8b 4d f0             	mov    -0x10(%rbp),%ecx
  60461a:	09 c8                	or     %ecx,%eax
  60461c:	89 45 e4             	mov    %eax,-0x1c(%rbp)
  60461f:	b8 05 00 00 00       	mov    $0x5,%eax
  604624:	49 89 c1             	mov    %rax,%r9
  604627:	b8 05 00 00 00       	mov    $0x5,%eax
  60462c:	49 89 c0             	mov    %rax,%r8
  60462f:	b8 01 00 00 00       	mov    $0x1,%eax
  604634:	49 89 c3             	mov    %rax,%r11
  604637:	8b 45 e4             	mov    -0x1c(%rbp),%eax
  60463a:	49 89 c2             	mov    %rax,%r10
  60463d:	48 8d 45 e0          	lea    -0x20(%rbp),%rax
  604641:	48 89 c6             	mov    %rax,%rsi
  604644:	48 8b 45 f8          	mov    -0x8(%rbp),%rax
  604648:	48 89 c7             	mov    %rax,%rdi
  60464b:	4c 89 d2             	mov    %r10,%rdx
  60464e:	4c 89 d9             	mov    %r11,%rcx
  604651:	b8 00 00 00 00       	mov    $0x0,%eax
  604656:	e8 01 fd ff ff       	call   60435c <__atomic_compare_exchange_4>
  60465b:	0f b6 c0             	movzbl %al,%eax
  60465e:	83 f8 00             	cmp    $0x0,%eax
  604661:	0f 84 ad ff ff ff    	je     604614 <__atomic_or_fetch_4+0x33>
  604667:	8b 45 e4             	mov    -0x1c(%rbp),%eax
  60466a:	c9                   	leave
  60466b:	c3                   	ret

000000000060466c <__atomic_xor_fetch_4>:
  60466c:	55                   	push   %rbp
  60466d:	48 89 e5             	mov    %rsp,%rbp
  604670:	48 81 ec 20 00 00 00 	sub    $0x20,%rsp
  604677:	48 89 7d f8          	mov    %rdi,-0x8(%rbp)
  60467b:	48 89 75 f0          	mov    %rsi,-0x10(%rbp)
  60467f:	48 89 55 e8          	mov    %rdx,-0x18(%rbp)
  604683:	b8 00 00 00 00       	mov    $0x0,%eax
  604688:	48 89 c6             	mov    %rax,%rsi
  60468b:	48 8b 45 f8          	mov    -0x8(%rbp),%rax
  60468f:	48 89 c7             	mov    %rax,%rdi
  604692:	b8 00 00 00 00       	mov    $0x0,%eax
  604697:	e8 98 fc ff ff       	call   604334 <__atomic_load_4>
  60469c:	89 45 e0             	mov    %eax,-0x20(%rbp)
  60469f:	8b 45 e0             	mov    -0x20(%rbp),%eax
  6046a2:	8b 4d f0             	mov    -0x10(%rbp),%ecx
  6046a5:	31 c8                	xor    %ecx,%eax
  6046a7:	89 45 e4             	mov    %eax,-0x1c(%rbp)
  6046aa:	b8 05 00 00 00       	mov    $0x5,%eax
  6046af:	49 89 c1             	mov    %rax,%r9
  6046b2:	b8 05 00 00 00       	mov    $0x5,%eax
  6046b7:	49 89 c0             	mov    %rax,%r8
  6046ba:	b8 01 00 00 00       	mov    $0x1,%eax
  6046bf:	49 89 c3             	mov    %rax,%r11
  6046c2:	8b 45 e4             	mov    -0x1c(%rbp),%eax
  6046c5:	49 89 c2             	mov    %rax,%r10
  6046c8:	48 8d 45 e0          	lea    -0x20(%rbp),%rax
  6046cc:	48 89 c6             	mov    %rax,%rsi
  6046cf:	48 8b 45 f8          	mov    -0x8(%rbp),%rax
  6046d3:	48 89 c7             	mov    %rax,%rdi
  6046d6:	4c 89 d2             	mov    %r10,%rdx
  6046d9:	4c 89 d9             	mov    %r11,%rcx
  6046dc:	b8 00 00 00 00       	mov    $0x0,%eax
  6046e1:	e8 76 fc ff ff       	call   60435c <__atomic_compare_exchange_4>
  6046e6:	0f b6 c0             	movzbl %al,%eax
  6046e9:	83 f8 00             	cmp    $0x0,%eax
  6046ec:	0f 84 ad ff ff ff    	je     60469f <__atomic_xor_fetch_4+0x33>
  6046f2:	8b 45 e4             	mov    -0x1c(%rbp),%eax
  6046f5:	c9                   	leave
  6046f6:	c3                   	ret

00000000006046f7 <__atomic_nand_fetch_4>:
  6046f7:	55                   	push   %rbp
  6046f8:	48 89 e5             	mov    %rsp,%rbp
  6046fb:	48 81 ec 20 00 00 00 	sub    $0x20,%rsp
  604702:	48 89 7d f8          	mov    %rdi,-0x8(%rbp)
  604706:	48 89 75 f0          	mov    %rsi,-0x10(%rbp)
  60470a:	48 89 55 e8          	mov    %rdx,-0x18(%rbp)
  60470e:	b8 00 00 00 00       	mov    $0x0,%eax
  604713:	48 89 c6             	mov    %rax,%rsi
  604716:	48 8b 45 f8          	mov    -0x8(%rbp),%rax
  60471a:	48 89 c7             	mov    %rax,%rdi
  60471d:	b8 00 00 00 00       	mov    $0x0,%eax
  604722:	e8 0d fc ff ff       	call   604334 <__atomic_load_4>
  604727:	89 45 e0             	mov    %eax,-0x20(%rbp)
  60472a:	8b 45 e0             	mov    -0x20(%rbp),%eax
  60472d:	8b 4d f0             	mov    -0x10(%rbp),%ecx
  604730:	21 c8                	and    %ecx,%eax
  604732:	83 f0 ff             	xor    $0xffffffff,%eax
  604735:	89 45 e4             	mov    %eax,-0x1c(%rbp)
  604738:	b8 05 00 00 00       	mov    $0x5,%eax
  60473d:	49 89 c1             	mov    %rax,%r9
  604740:	b8 05 00 00 00       	mov    $0x5,%eax
  604745:	49 89 c0             	mov    %rax,%r8
  604748:	b8 01 00 00 00       	mov    $0x1,%eax
  60474d:	49 89 c3             	mov    %rax,%r11
  604750:	8b 45 e4             	mov    -0x1c(%rbp),%eax
  604753:	49 89 c2             	mov    %rax,%r10
  604756:	48 8d 45 e0          	lea    -0x20(%rbp),%rax
  60475a:	48 89 c6             	mov    %rax,%rsi
  60475d:	48 8b 45 f8          	mov    -0x8(%rbp),%rax
  604761:	48 89 c7             	mov    %rax,%rdi
  604764:	4c 89 d2             	mov    %r10,%rdx
  604767:	4c 89 d9             	mov    %r11,%rcx
  60476a:	b8 00 00 00 00       	mov    $0x0,%eax
  60476f:	e8 e8 fb ff ff       	call   60435c <__atomic_compare_exchange_4>
  604774:	0f b6 c0             	movzbl %al,%eax
  604777:	83 f8 00             	cmp    $0x0,%eax
  60477a:	0f 84 aa ff ff ff    	je     60472a <__atomic_nand_fetch_4+0x33>
  604780:	8b 45 e4             	mov    -0x1c(%rbp),%eax
  604783:	c9                   	leave
  604784:	c3                   	ret

0000000000604785 <__atomic_fetch_add_4>:
  604785:	55                   	push   %rbp
  604786:	48 89 e5             	mov    %rsp,%rbp
  604789:	48 81 ec 20 00 00 00 	sub    $0x20,%rsp
  604790:	48 89 7d f8          	mov    %rdi,-0x8(%rbp)
  604794:	48 89 75 f0          	mov    %rsi,-0x10(%rbp)
  604798:	48 89 55 e8          	mov    %rdx,-0x18(%rbp)
  60479c:	b8 00 00 00 00       	mov    $0x0,%eax
  6047a1:	48 89 c6             	mov    %rax,%rsi
  6047a4:	48 8b 45 f8          	mov    -0x8(%rbp),%rax
  6047a8:	48 89 c7             	mov    %rax,%rdi
  6047ab:	b8 00 00 00 00       	mov    $0x0,%eax
  6047b0:	e8 7f fb ff ff       	call   604334 <__atomic_load_4>
  6047b5:	89 45 e0             	mov    %eax,-0x20(%rbp)
  6047b8:	8b 45 e0             	mov    -0x20(%rbp),%eax
  6047bb:	8b 4d f0             	mov    -0x10(%rbp),%ecx
  6047be:	01 c8                	add    %ecx,%eax
  6047c0:	89 45 e4             	mov    %eax,-0x1c(%rbp)
  6047c3:	b8 05 00 00 00       	mov    $0x5,%eax
  6047c8:	49 89 c1             	mov    %rax,%r9
  6047cb:	b8 05 00 00 00       	mov    $0x5,%eax
  6047d0:	49 89 c0             	mov    %rax,%r8
  6047d3:	b8 01 00 00 00       	mov    $0x1,%eax
  6047d8:	49 89 c3             	mov    %rax,%r11
  6047db:	8b 45 e4             	mov    -0x1c(%rbp),%eax
  6047de:	49 89 c2             	mov    %rax,%r10
  6047e1:	48 8d 45 e0          	lea    -0x20(%rbp),%rax
  6047e5:	48 89 c6             	mov    %rax,%rsi
  6047e8:	48 8b 45 f8          	mov    -0x8(%rbp),%rax
  6047ec:	48 89 c7             	mov    %rax,%rdi
  6047ef:	4c 89 d2             	mov    %r10,%rdx
  6047f2:	4c 89 d9             	mov    %r11,%rcx
  6047f5:	b8 00 00 00 00       	mov    $0x0,%eax
  6047fa:	e8 5d fb ff ff       	call   60435c <__atomic_compare_exchange_4>
  6047ff:	0f b6 c0             	movzbl %al,%eax
  604802:	83 f8 00             	cmp    $0x0,%eax
  604805:	0f 84 ad ff ff ff    	je     6047b8 <__atomic_fetch_add_4+0x33>
  60480b:	8b 45 e0             	mov    -0x20(%rbp),%eax
  60480e:	c9                   	leave
  60480f:	c3                   	ret

0000000000604810 <__atomic_fetch_sub_4>:
  604810:	55                   	push   %rbp
  604811:	48 89 e5             	mov    %rsp,%rbp
  604814:	48 81 ec 20 00 00 00 	sub    $0x20,%rsp
  60481b:	48 89 7d f8          	mov    %rdi,-0x8(%rbp)
  60481f:	48 89 75 f0          	mov    %rsi,-0x10(%rbp)
  604823:	48 89 55 e8          	mov    %rdx,-0x18(%rbp)
  604827:	b8 00 00 00 00       	mov    $0x0,%eax
  60482c:	48 89 c6             	mov    %rax,%rsi
  60482f:	48 8b 45 f8          	mov    -0x8(%rbp),%rax
  604833:	48 89 c7             	mov    %rax,%rdi
  604836:	b8 00 00 00 00       	mov    $0x0,%eax
  60483b:	e8 f4 fa ff ff       	call   604334 <__atomic_load_4>
  604840:	89 45 e0             	mov    %eax,-0x20(%rbp)
  604843:	8b 45 e0             	mov    -0x20(%rbp),%eax
  604846:	8b 4d f0             	mov    -0x10(%rbp),%ecx
  604849:	29 c8                	sub    %ecx,%eax
  60484b:	89 45 e4             	mov    %eax,-0x1c(%rbp)
  60484e:	b8 05 00 00 00       	mov    $0x5,%eax
  604853:	49 89 c1             	mov    %rax,%r9
  604856:	b8 05 00 00 00       	mov    $0x5,%eax
  60485b:	49 89 c0             	mov    %rax,%r8
  60485e:	b8 01 00 00 00       	mov    $0x1,%eax
  604863:	49 89 c3             	mov    %rax,%r11
  604866:	8b 45 e4             	mov    -0x1c(%rbp),%eax
  604869:	49 89 c2             	mov    %rax,%r10
  60486c:	48 8d 45 e0          	lea    -0x20(%rbp),%rax
  604870:	48 89 c6             	mov    %rax,%rsi
  604873:	48 8b 45 f8          	mov    -0x8(%rbp),%rax
  604877:	48 89 c7             	mov    %rax,%rdi
  60487a:	4c 89 d2             	mov    %r10,%rdx
  60487d:	4c 89 d9             	mov    %r11,%rcx
  604880:	b8 00 00 00 00       	mov    $0x0,%eax
  604885:	e8 d2 fa ff ff       	call   60435c <__atomic_compare_exchange_4>
  60488a:	0f b6 c0             	movzbl %al,%eax
  60488d:	83 f8 00             	cmp    $0x0,%eax
  604890:	0f 84 ad ff ff ff    	je     604843 <__atomic_fetch_sub_4+0x33>
  604896:	8b 45 e0             	mov    -0x20(%rbp),%eax
  604899:	c9                   	leave
  60489a:	c3                   	ret

000000000060489b <__atomic_fetch_and_4>:
  60489b:	55                   	push   %rbp
  60489c:	48 89 e5             	mov    %rsp,%rbp
  60489f:	48 81 ec 20 00 00 00 	sub    $0x20,%rsp
  6048a6:	48 89 7d f8          	mov    %rdi,-0x8(%rbp)
  6048aa:	48 89 75 f0          	mov    %rsi,-0x10(%rbp)
  6048ae:	48 89 55 e8          	mov    %rdx,-0x18(%rbp)
  6048b2:	b8 00 00 00 00       	mov    $0x0,%eax
  6048b7:	48 89 c6             	mov    %rax,%rsi
  6048ba:	48 8b 45 f8          	mov    -0x8(%rbp),%rax
  6048be:	48 89 c7             	mov    %rax,%rdi
  6048c1:	b8 00 00 00 00       	mov    $0x0,%eax
  6048c6:	e8 69 fa ff ff       	call   604334 <__atomic_load_4>
  6048cb:	89 45 e0             	mov    %eax,-0x20(%rbp)
  6048ce:	8b 45 e0             	mov    -0x20(%rbp),%eax
  6048d1:	8b 4d f0             	mov    -0x10(%rbp),%ecx
  6048d4:	21 c8                	and    %ecx,%eax
  6048d6:	89 45 e4             	mov    %eax,-0x1c(%rbp)
  6048d9:	b8 05 00 00 00       	mov    $0x5,%eax
  6048de:	49 89 c1             	mov    %rax,%r9
  6048e1:	b8 05 00 00 00       	mov    $0x5,%eax
  6048e6:	49 89 c0             	mov    %rax,%r8
  6048e9:	b8 01 00 00 00       	mov    $0x1,%eax
  6048ee:	49 89 c3             	mov    %rax,%r11
  6048f1:	8b 45 e4             	mov    -0x1c(%rbp),%eax
  6048f4:	49 89 c2             	mov    %rax,%r10
  6048f7:	48 8d 45 e0          	lea    -0x20(%rbp),%rax
  6048fb:	48 89 c6             	mov    %rax,%rsi
  6048fe:	48 8b 45 f8          	mov    -0x8(%rbp),%rax
  604902:	48 89 c7             	mov    %rax,%rdi
  604905:	4c 89 d2             	mov    %r10,%rdx
  604908:	4c 89 d9             	mov    %r11,%rcx
  60490b:	b8 00 00 00 00       	mov    $0x0,%eax
  604910:	e8 47 fa ff ff       	call   60435c <__atomic_compare_exchange_4>
  604915:	0f b6 c0             	movzbl %al,%eax
  604918:	83 f8 00             	cmp    $0x0,%eax
  60491b:	0f 84 ad ff ff ff    	je     6048ce <__atomic_fetch_and_4+0x33>
  604921:	8b 45 e0             	mov    -0x20(%rbp),%eax
  604924:	c9                   	leave
  604925:	c3                   	ret

0000000000604926 <__atomic_fetch_or_4>:
  604926:	55                   	push   %rbp
  604927:	48 89 e5             	mov    %rsp,%rbp
  60492a:	48 81 ec 20 00 00 00 	sub    $0x20,%rsp
  604931:	48 89 7d f8          	mov    %rdi,-0x8(%rbp)
  604935:	48 89 75 f0          	mov    %rsi,-0x10(%rbp)
  604939:	48 89 55 e8          	mov    %rdx,-0x18(%rbp)
  60493d:	b8 00 00 00 00       	mov    $0x0,%eax
  604942:	48 89 c6             	mov    %rax,%rsi
  604945:	48 8b 45 f8          	mov    -0x8(%rbp),%rax
  604949:	48 89 c7             	mov    %rax,%rdi
  60494c:	b8 00 00 00 00       	mov    $0x0,%eax
  604951:	e8 de f9 ff ff       	call   604334 <__atomic_load_4>
  604956:	89 45 e0             	mov    %eax,-0x20(%rbp)
  604959:	8b 45 e0             	mov    -0x20(%rbp),%eax
  60495c:	8b 4d f0             	mov    -0x10(%rbp),%ecx
  60495f:	09 c8                	or     %ecx,%eax
  604961:	89 45 e4             	mov    %eax,-0x1c(%rbp)
  604964:	b8 05 00 00 00       	mov    $0x5,%eax
  604969:	49 89 c1             	mov    %rax,%r9
  60496c:	b8 05 00 00 00       	mov    $0x5,%eax
  604971:	49 89 c0             	mov    %rax,%r8
  604974:	b8 01 00 00 00       	mov    $0x1,%eax
  604979:	49 89 c3             	mov    %rax,%r11
  60497c:	8b 45 e4             	mov    -0x1c(%rbp),%eax
  60497f:	49 89 c2             	mov    %rax,%r10
  604982:	48 8d 45 e0          	lea    -0x20(%rbp),%rax
  604986:	48 89 c6             	mov    %rax,%rsi
  604989:	48 8b 45 f8          	mov    -0x8(%rbp),%rax
  60498d:	48 89 c7             	mov    %rax,%rdi
  604990:	4c 89 d2             	mov    %r10,%rdx
  604993:	4c 89 d9             	mov    %r11,%rcx
  604996:	b8 00 00 00 00       	mov    $0x0,%eax
  60499b:	e8 bc f9 ff ff       	call   60435c <__atomic_compare_exchange_4>
  6049a0:	0f b6 c0             	movzbl %al,%eax
  6049a3:	83 f8 00             	cmp    $0x0,%eax
  6049a6:	0f 84 ad ff ff ff    	je     604959 <__atomic_fetch_or_4+0x33>
  6049ac:	8b 45 e0             	mov    -0x20(%rbp),%eax
  6049af:	c9                   	leave
  6049b0:	c3                   	ret

00000000006049b1 <__atomic_fetch_xor_4>:
  6049b1:	55                   	push   %rbp
  6049b2:	48 89 e5             	mov    %rsp,%rbp
  6049b5:	48 81 ec 20 00 00 00 	sub    $0x20,%rsp
  6049bc:	48 89 7d f8          	mov    %rdi,-0x8(%rbp)
  6049c0:	48 89 75 f0          	mov    %rsi,-0x10(%rbp)
  6049c4:	48 89 55 e8          	mov    %rdx,-0x18(%rbp)
  6049c8:	b8 00 00 00 00       	mov    $0x0,%eax
  6049cd:	48 89 c6             	mov    %rax,%rsi
  6049d0:	48 8b 45 f8          	mov    -0x8(%rbp),%rax
  6049d4:	48 89 c7             	mov    %rax,%rdi
  6049d7:	b8 00 00 00 00       	mov    $0x0,%eax
  6049dc:	e8 53 f9 ff ff       	call   604334 <__atomic_load_4>
  6049e1:	89 45 e0             	mov    %eax,-0x20(%rbp)
  6049e4:	8b 45 e0             	mov    -0x20(%rbp),%eax
  6049e7:	8b 4d f0             	mov    -0x10(%rbp),%ecx
  6049ea:	31 c8                	xor    %ecx,%eax
  6049ec:	89 45 e4             	mov    %eax,-0x1c(%rbp)
  6049ef:	b8 05 00 00 00       	mov    $0x5,%eax
  6049f4:	49 89 c1             	mov    %rax,%r9
  6049f7:	b8 05 00 00 00       	mov    $0x5,%eax
  6049fc:	49 89 c0             	mov    %rax,%r8
  6049ff:	b8 01 00 00 00       	mov    $0x1,%eax
  604a04:	49 89 c3             	mov    %rax,%r11
  604a07:	8b 45 e4             	mov    -0x1c(%rbp),%eax
  604a0a:	49 89 c2             	mov    %rax,%r10
  604a0d:	48 8d 45 e0          	lea    -0x20(%rbp),%rax
  604a11:	48 89 c6             	mov    %rax,%rsi
  604a14:	48 8b 45 f8          	mov    -0x8(%rbp),%rax
  604a18:	48 89 c7             	mov    %rax,%rdi
  604a1b:	4c 89 d2             	mov    %r10,%rdx
  604a1e:	4c 89 d9             	mov    %r11,%rcx
  604a21:	b8 00 00 00 00       	mov    $0x0,%eax
  604a26:	e8 31 f9 ff ff       	call   60435c <__atomic_compare_exchange_4>
  604a2b:	0f b6 c0             	movzbl %al,%eax
  604a2e:	83 f8 00             	cmp    $0x0,%eax
  604a31:	0f 84 ad ff ff ff    	je     6049e4 <__atomic_fetch_xor_4+0x33>
  604a37:	8b 45 e0             	mov    -0x20(%rbp),%eax
  604a3a:	c9                   	leave
  604a3b:	c3                   	ret

0000000000604a3c <__atomic_fetch_nand_4>:
  604a3c:	55                   	push   %rbp
  604a3d:	48 89 e5             	mov    %rsp,%rbp
  604a40:	48 81 ec 20 00 00 00 	sub    $0x20,%rsp
  604a47:	48 89 7d f8          	mov    %rdi,-0x8(%rbp)
  604a4b:	48 89 75 f0          	mov    %rsi,-0x10(%rbp)
  604a4f:	48 89 55 e8          	mov    %rdx,-0x18(%rbp)
  604a53:	b8 00 00 00 00       	mov    $0x0,%eax
  604a58:	48 89 c6             	mov    %rax,%rsi
  604a5b:	48 8b 45 f8          	mov    -0x8(%rbp),%rax
  604a5f:	48 89 c7             	mov    %rax,%rdi
  604a62:	b8 00 00 00 00       	mov    $0x0,%eax
  604a67:	e8 c8 f8 ff ff       	call   604334 <__atomic_load_4>
  604a6c:	89 45 e0             	mov    %eax,-0x20(%rbp)
  604a6f:	8b 45 e0             	mov    -0x20(%rbp),%eax
  604a72:	8b 4d f0             	mov    -0x10(%rbp),%ecx
  604a75:	21 c8                	and    %ecx,%eax
  604a77:	83 f0 ff             	xor    $0xffffffff,%eax
  604a7a:	89 45 e4             	mov    %eax,-0x1c(%rbp)
  604a7d:	b8 05 00 00 00       	mov    $0x5,%eax
  604a82:	49 89 c1             	mov    %rax,%r9
  604a85:	b8 05 00 00 00       	mov    $0x5,%eax
  604a8a:	49 89 c0             	mov    %rax,%r8
  604a8d:	b8 01 00 00 00       	mov    $0x1,%eax
  604a92:	49 89 c3             	mov    %rax,%r11
  604a95:	8b 45 e4             	mov    -0x1c(%rbp),%eax
  604a98:	49 89 c2             	mov    %rax,%r10
  604a9b:	48 8d 45 e0          	lea    -0x20(%rbp),%rax
  604a9f:	48 89 c6             	mov    %rax,%rsi
  604aa2:	48 8b 45 f8          	mov    -0x8(%rbp),%rax
  604aa6:	48 89 c7             	mov    %rax,%rdi
  604aa9:	4c 89 d2             	mov    %r10,%rdx
  604aac:	4c 89 d9             	mov    %r11,%rcx
  604aaf:	b8 00 00 00 00       	mov    $0x0,%eax
  604ab4:	e8 a3 f8 ff ff       	call   60435c <__atomic_compare_exchange_4>
  604ab9:	0f b6 c0             	movzbl %al,%eax
  604abc:	83 f8 00             	cmp    $0x0,%eax
  604abf:	0f 84 aa ff ff ff    	je     604a6f <__atomic_fetch_nand_4+0x33>
  604ac5:	8b 45 e0             	mov    -0x20(%rbp),%eax
  604ac8:	c9                   	leave
  604ac9:	c3                   	ret

0000000000604aca <__atomic_store_8>:
  604aca:	55                   	push   %rbp
  604acb:	48 89 e5             	mov    %rsp,%rbp
  604ace:	48 81 ec 20 00 00 00 	sub    $0x20,%rsp
  604ad5:	48 89 7d f8          	mov    %rdi,-0x8(%rbp)
  604ad9:	48 89 75 f0          	mov    %rsi,-0x10(%rbp)
  604add:	48 89 55 e8          	mov    %rdx,-0x18(%rbp)
  604ae1:	48 8b 45 f8          	mov    -0x8(%rbp),%rax
  604ae5:	48 8b 4d f0          	mov    -0x10(%rbp),%rcx
  604ae9:	48 89 08             	mov    %rcx,(%rax)
  604aec:	b8 04 00 00 00       	mov    $0x4,%eax
  604af1:	48 89 c7             	mov    %rax,%rdi
  604af4:	e8 10 08 00 00       	call   605309 <__atomic_thread_fence>
  604af9:	c9                   	leave
  604afa:	c3                   	ret

0000000000604afb <__atomic_load_8>:
  604afb:	55                   	push   %rbp
  604afc:	48 89 e5             	mov    %rsp,%rbp
  604aff:	48 81 ec 10 00 00 00 	sub    $0x10,%rsp
  604b06:	48 89 7d f8          	mov    %rdi,-0x8(%rbp)
  604b0a:	48 89 75 f0          	mov    %rsi,-0x10(%rbp)
  604b0e:	b8 02 00 00 00       	mov    $0x2,%eax
  604b13:	48 89 c7             	mov    %rax,%rdi
  604b16:	e8 ee 07 00 00       	call   605309 <__atomic_thread_fence>
  604b1b:	48 8b 45 f8          	mov    -0x8(%rbp),%rax
  604b1f:	48 8b 00             	mov    (%rax),%rax
  604b22:	c9                   	leave
  604b23:	c3                   	ret

0000000000604b24 <__atomic_compare_exchange_8>:
  604b24:	55                   	push   %rbp
  604b25:	48 89 e5             	mov    %rsp,%rbp
  604b28:	48 81 ec 50 00 00 00 	sub    $0x50,%rsp
  604b2f:	48 89 7d f8          	mov    %rdi,-0x8(%rbp)
  604b33:	48 89 75 f0          	mov    %rsi,-0x10(%rbp)
  604b37:	48 89 55 e8          	mov    %rdx,-0x18(%rbp)
  604b3b:	48 89 4d e0          	mov    %rcx,-0x20(%rbp)
  604b3f:	4c 89 45 d8          	mov    %r8,-0x28(%rbp)
  604b43:	4c 89 4d d0          	mov    %r9,-0x30(%rbp)
  604b47:	48 8b 45 f0          	mov    -0x10(%rbp),%rax
  604b4b:	48 8b 00             	mov    (%rax),%rax
  604b4e:	48 89 45 c0          	mov    %rax,-0x40(%rbp)
  604b52:	48 8b 45 f8          	mov    -0x8(%rbp),%rax
  604b56:	48 89 45 b8          	mov    %rax,-0x48(%rbp)
  604b5a:	48 8b 55 b8          	mov    -0x48(%rbp),%rdx
  604b5e:	48 8b 4d e8          	mov    -0x18(%rbp),%rcx
  604b62:	48 8b 45 c0          	mov    -0x40(%rbp),%rax
  604b66:	f0 48 0f b1 0a       	lock cmpxchg %rcx,(%rdx)
  604b6b:	48 89 45 c8          	mov    %rax,-0x38(%rbp)
  604b6f:	48 8b 45 f0          	mov    -0x10(%rbp),%rax
  604b73:	48 8b 4d c8          	mov    -0x38(%rbp),%rcx
  604b77:	48 89 08             	mov    %rcx,(%rax)
  604b7a:	48 8b 45 c8          	mov    -0x38(%rbp),%rax
  604b7e:	48 8b 4d c0          	mov    -0x40(%rbp),%rcx
  604b82:	48 39 c8             	cmp    %rcx,%rax
  604b85:	0f 94 c0             	sete   %al
  604b88:	0f b6 c0             	movzbl %al,%eax
  604b8b:	c9                   	leave
  604b8c:	c3                   	ret

0000000000604b8d <__atomic_exchange_8>:
  604b8d:	55                   	push   %rbp
  604b8e:	48 89 e5             	mov    %rsp,%rbp
  604b91:	48 81 ec 30 00 00 00 	sub    $0x30,%rsp
  604b98:	48 89 7d f8          	mov    %rdi,-0x8(%rbp)
  604b9c:	48 89 75 f0          	mov    %rsi,-0x10(%rbp)
  604ba0:	48 89 55 e8          	mov    %rdx,-0x18(%rbp)
  604ba4:	b8 00 00 00 00       	mov    $0x0,%eax
  604ba9:	48 89 c6             	mov    %rax,%rsi
  604bac:	48 8b 45 f8          	mov    -0x8(%rbp),%rax
  604bb0:	48 89 c7             	mov    %rax,%rdi
  604bb3:	b8 00 00 00 00       	mov    $0x0,%eax
  604bb8:	e8 3e ff ff ff       	call   604afb <__atomic_load_8>
  604bbd:	48 89 45 d8          	mov    %rax,-0x28(%rbp)
  604bc1:	48 8b 45 f0          	mov    -0x10(%rbp),%rax
  604bc5:	48 89 45 e0          	mov    %rax,-0x20(%rbp)
  604bc9:	b8 05 00 00 00       	mov    $0x5,%eax
  604bce:	49 89 c1             	mov    %rax,%r9
  604bd1:	b8 05 00 00 00       	mov    $0x5,%eax
  604bd6:	49 89 c0             	mov    %rax,%r8
  604bd9:	b8 01 00 00 00       	mov    $0x1,%eax
  604bde:	49 89 c3             	mov    %rax,%r11
  604be1:	48 8b 45 e0          	mov    -0x20(%rbp),%rax
  604be5:	49 89 c2             	mov    %rax,%r10
  604be8:	48 8d 45 d8          	lea    -0x28(%rbp),%rax
  604bec:	48 89 c6             	mov    %rax,%rsi
  604bef:	48 8b 45 f8          	mov    -0x8(%rbp),%rax
  604bf3:	48 89 c7             	mov    %rax,%rdi
  604bf6:	4c 89 d2             	mov    %r10,%rdx
  604bf9:	4c 89 d9             	mov    %r11,%rcx
  604bfc:	b8 00 00 00 00       	mov    $0x0,%eax
  604c01:	e8 1e ff ff ff       	call   604b24 <__atomic_compare_exchange_8>
  604c06:	0f b6 c0             	movzbl %al,%eax
  604c09:	83 f8 00             	cmp    $0x0,%eax
  604c0c:	0f 84 af ff ff ff    	je     604bc1 <__atomic_exchange_8+0x34>
  604c12:	48 8b 45 d8          	mov    -0x28(%rbp),%rax
  604c16:	c9                   	leave
  604c17:	c3                   	ret

0000000000604c18 <__atomic_add_fetch_8>:
  604c18:	55                   	push   %rbp
  604c19:	48 89 e5             	mov    %rsp,%rbp
  604c1c:	48 81 ec 30 00 00 00 	sub    $0x30,%rsp
  604c23:	48 89 7d f8          	mov    %rdi,-0x8(%rbp)
  604c27:	48 89 75 f0          	mov    %rsi,-0x10(%rbp)
  604c2b:	48 89 55 e8          	mov    %rdx,-0x18(%rbp)
  604c2f:	b8 00 00 00 00       	mov    $0x0,%eax
  604c34:	48 89 c6             	mov    %rax,%rsi
  604c37:	48 8b 45 f8          	mov    -0x8(%rbp),%rax
  604c3b:	48 89 c7             	mov    %rax,%rdi
  604c3e:	b8 00 00 00 00       	mov    $0x0,%eax
  604c43:	e8 b3 fe ff ff       	call   604afb <__atomic_load_8>
  604c48:	48 89 45 d8          	mov    %rax,-0x28(%rbp)
  604c4c:	48 8b 45 d8          	mov    -0x28(%rbp),%rax
  604c50:	48 8b 4d f0          	mov    -0x10(%rbp),%rcx
  604c54:	48 01 c8             	add    %rcx,%rax
  604c57:	48 89 45 e0          	mov    %rax,-0x20(%rbp)
  604c5b:	b8 05 00 00 00       	mov    $0x5,%eax
  604c60:	49 89 c1             	mov    %rax,%r9
  604c63:	b8 05 00 00 00       	mov    $0x5,%eax
  604c68:	49 89 c0             	mov    %rax,%r8
  604c6b:	b8 01 00 00 00       	mov    $0x1,%eax
  604c70:	49 89 c3             	mov    %rax,%r11
  604c73:	48 8b 45 e0          	mov    -0x20(%rbp),%rax
  604c77:	49 89 c2             	mov    %rax,%r10
  604c7a:	48 8d 45 d8          	lea    -0x28(%rbp),%rax
  604c7e:	48 89 c6             	mov    %rax,%rsi
  604c81:	48 8b 45 f8          	mov    -0x8(%rbp),%rax
  604c85:	48 89 c7             	mov    %rax,%rdi
  604c88:	4c 89 d2             	mov    %r10,%rdx
  604c8b:	4c 89 d9             	mov    %r11,%rcx
  604c8e:	b8 00 00 00 00       	mov    $0x0,%eax
  604c93:	e8 8c fe ff ff       	call   604b24 <__atomic_compare_exchange_8>
  604c98:	0f b6 c0             	movzbl %al,%eax
  604c9b:	83 f8 00             	cmp    $0x0,%eax
  604c9e:	0f 84 a8 ff ff ff    	je     604c4c <__atomic_add_fetch_8+0x34>
  604ca4:	48 8b 45 e0          	mov    -0x20(%rbp),%rax
  604ca8:	c9                   	leave
  604ca9:	c3                   	ret

0000000000604caa <__atomic_sub_fetch_8>:
  604caa:	55                   	push   %rbp
  604cab:	48 89 e5             	mov    %rsp,%rbp
  604cae:	48 81 ec 30 00 00 00 	sub    $0x30,%rsp
  604cb5:	48 89 7d f8          	mov    %rdi,-0x8(%rbp)
  604cb9:	48 89 75 f0          	mov    %rsi,-0x10(%rbp)
  604cbd:	48 89 55 e8          	mov    %rdx,-0x18(%rbp)
  604cc1:	b8 00 00 00 00       	mov    $0x0,%eax
  604cc6:	48 89 c6             	mov    %rax,%rsi
  604cc9:	48 8b 45 f8          	mov    -0x8(%rbp),%rax
  604ccd:	48 89 c7             	mov    %rax,%rdi
  604cd0:	b8 00 00 00 00       	mov    $0x0,%eax
  604cd5:	e8 21 fe ff ff       	call   604afb <__atomic_load_8>
  604cda:	48 89 45 d8          	mov    %rax,-0x28(%rbp)
  604cde:	48 8b 45 d8          	mov    -0x28(%rbp),%rax
  604ce2:	48 8b 4d f0          	mov    -0x10(%rbp),%rcx
  604ce6:	48 29 c8             	sub    %rcx,%rax
  604ce9:	48 89 45 e0          	mov    %rax,-0x20(%rbp)
  604ced:	b8 05 00 00 00       	mov    $0x5,%eax
  604cf2:	49 89 c1             	mov    %rax,%r9
  604cf5:	b8 05 00 00 00       	mov    $0x5,%eax
  604cfa:	49 89 c0             	mov    %rax,%r8
  604cfd:	b8 01 00 00 00       	mov    $0x1,%eax
  604d02:	49 89 c3             	mov    %rax,%r11
  604d05:	48 8b 45 e0          	mov    -0x20(%rbp),%rax
  604d09:	49 89 c2             	mov    %rax,%r10
  604d0c:	48 8d 45 d8          	lea    -0x28(%rbp),%rax
  604d10:	48 89 c6             	mov    %rax,%rsi
  604d13:	48 8b 45 f8          	mov    -0x8(%rbp),%rax
  604d17:	48 89 c7             	mov    %rax,%rdi
  604d1a:	4c 89 d2             	mov    %r10,%rdx
  604d1d:	4c 89 d9             	mov    %r11,%rcx
  604d20:	b8 00 00 00 00       	mov    $0x0,%eax
  604d25:	e8 fa fd ff ff       	call   604b24 <__atomic_compare_exchange_8>
  604d2a:	0f b6 c0             	movzbl %al,%eax
  604d2d:	83 f8 00             	cmp    $0x0,%eax
  604d30:	0f 84 a8 ff ff ff    	je     604cde <__atomic_sub_fetch_8+0x34>
  604d36:	48 8b 45 e0          	mov    -0x20(%rbp),%rax
  604d3a:	c9                   	leave
  604d3b:	c3                   	ret

0000000000604d3c <__atomic_and_fetch_8>:
  604d3c:	55                   	push   %rbp
  604d3d:	48 89 e5             	mov    %rsp,%rbp
  604d40:	48 81 ec 30 00 00 00 	sub    $0x30,%rsp
  604d47:	48 89 7d f8          	mov    %rdi,-0x8(%rbp)
  604d4b:	48 89 75 f0          	mov    %rsi,-0x10(%rbp)
  604d4f:	48 89 55 e8          	mov    %rdx,-0x18(%rbp)
  604d53:	b8 00 00 00 00       	mov    $0x0,%eax
  604d58:	48 89 c6             	mov    %rax,%rsi
  604d5b:	48 8b 45 f8          	mov    -0x8(%rbp),%rax
  604d5f:	48 89 c7             	mov    %rax,%rdi
  604d62:	b8 00 00 00 00       	mov    $0x0,%eax
  604d67:	e8 8f fd ff ff       	call   604afb <__atomic_load_8>
  604d6c:	48 89 45 d8          	mov    %rax,-0x28(%rbp)
  604d70:	48 8b 45 d8          	mov    -0x28(%rbp),%rax
  604d74:	48 8b 4d f0          	mov    -0x10(%rbp),%rcx
  604d78:	48 21 c8             	and    %rcx,%rax
  604d7b:	48 89 45 e0          	mov    %rax,-0x20(%rbp)
  604d7f:	b8 05 00 00 00       	mov    $0x5,%eax
  604d84:	49 89 c1             	mov    %rax,%r9
  604d87:	b8 05 00 00 00       	mov    $0x5,%eax
  604d8c:	49 89 c0             	mov    %rax,%r8
  604d8f:	b8 01 00 00 00       	mov    $0x1,%eax
  604d94:	49 89 c3             	mov    %rax,%r11
  604d97:	48 8b 45 e0          	mov    -0x20(%rbp),%rax
  604d9b:	49 89 c2             	mov    %rax,%r10
  604d9e:	48 8d 45 d8          	lea    -0x28(%rbp),%rax
  604da2:	48 89 c6             	mov    %rax,%rsi
  604da5:	48 8b 45 f8          	mov    -0x8(%rbp),%rax
  604da9:	48 89 c7             	mov    %rax,%rdi
  604dac:	4c 89 d2             	mov    %r10,%rdx
  604daf:	4c 89 d9             	mov    %r11,%rcx
  604db2:	b8 00 00 00 00       	mov    $0x0,%eax
  604db7:	e8 68 fd ff ff       	call   604b24 <__atomic_compare_exchange_8>
  604dbc:	0f b6 c0             	movzbl %al,%eax
  604dbf:	83 f8 00             	cmp    $0x0,%eax
  604dc2:	0f 84 a8 ff ff ff    	je     604d70 <__atomic_and_fetch_8+0x34>
  604dc8:	48 8b 45 e0          	mov    -0x20(%rbp),%rax
  604dcc:	c9                   	leave
  604dcd:	c3                   	ret

0000000000604dce <__atomic_or_fetch_8>:
  604dce:	55                   	push   %rbp
  604dcf:	48 89 e5             	mov    %rsp,%rbp
  604dd2:	48 81 ec 30 00 00 00 	sub    $0x30,%rsp
  604dd9:	48 89 7d f8          	mov    %rdi,-0x8(%rbp)
  604ddd:	48 89 75 f0          	mov    %rsi,-0x10(%rbp)
  604de1:	48 89 55 e8          	mov    %rdx,-0x18(%rbp)
  604de5:	b8 00 00 00 00       	mov    $0x0,%eax
  604dea:	48 89 c6             	mov    %rax,%rsi
  604ded:	48 8b 45 f8          	mov    -0x8(%rbp),%rax
  604df1:	48 89 c7             	mov    %rax,%rdi
  604df4:	b8 00 00 00 00       	mov    $0x0,%eax
  604df9:	e8 fd fc ff ff       	call   604afb <__atomic_load_8>
  604dfe:	48 89 45 d8          	mov    %rax,-0x28(%rbp)
  604e02:	48 8b 45 d8          	mov    -0x28(%rbp),%rax
  604e06:	48 8b 4d f0          	mov    -0x10(%rbp),%rcx
  604e0a:	48 09 c8             	or     %rcx,%rax
  604e0d:	48 89 45 e0          	mov    %rax,-0x20(%rbp)
  604e11:	b8 05 00 00 00       	mov    $0x5,%eax
  604e16:	49 89 c1             	mov    %rax,%r9
  604e19:	b8 05 00 00 00       	mov    $0x5,%eax
  604e1e:	49 89 c0             	mov    %rax,%r8
  604e21:	b8 01 00 00 00       	mov    $0x1,%eax
  604e26:	49 89 c3             	mov    %rax,%r11
  604e29:	48 8b 45 e0          	mov    -0x20(%rbp),%rax
  604e2d:	49 89 c2             	mov    %rax,%r10
  604e30:	48 8d 45 d8          	lea    -0x28(%rbp),%rax
  604e34:	48 89 c6             	mov    %rax,%rsi
  604e37:	48 8b 45 f8          	mov    -0x8(%rbp),%rax
  604e3b:	48 89 c7             	mov    %rax,%rdi
  604e3e:	4c 89 d2             	mov    %r10,%rdx
  604e41:	4c 89 d9             	mov    %r11,%rcx
  604e44:	b8 00 00 00 00       	mov    $0x0,%eax
  604e49:	e8 d6 fc ff ff       	call   604b24 <__atomic_compare_exchange_8>
  604e4e:	0f b6 c0             	movzbl %al,%eax
  604e51:	83 f8 00             	cmp    $0x0,%eax
  604e54:	0f 84 a8 ff ff ff    	je     604e02 <__atomic_or_fetch_8+0x34>
  604e5a:	48 8b 45 e0          	mov    -0x20(%rbp),%rax
  604e5e:	c9                   	leave
  604e5f:	c3                   	ret

0000000000604e60 <__atomic_xor_fetch_8>:
  604e60:	55                   	push   %rbp
  604e61:	48 89 e5             	mov    %rsp,%rbp
  604e64:	48 81 ec 30 00 00 00 	sub    $0x30,%rsp
  604e6b:	48 89 7d f8          	mov    %rdi,-0x8(%rbp)
  604e6f:	48 89 75 f0          	mov    %rsi,-0x10(%rbp)
  604e73:	48 89 55 e8          	mov    %rdx,-0x18(%rbp)
  604e77:	b8 00 00 00 00       	mov    $0x0,%eax
  604e7c:	48 89 c6             	mov    %rax,%rsi
  604e7f:	48 8b 45 f8          	mov    -0x8(%rbp),%rax
  604e83:	48 89 c7             	mov    %rax,%rdi
  604e86:	b8 00 00 00 00       	mov    $0x0,%eax
  604e8b:	e8 6b fc ff ff       	call   604afb <__atomic_load_8>
  604e90:	48 89 45 d8          	mov    %rax,-0x28(%rbp)
  604e94:	48 8b 45 d8          	mov    -0x28(%rbp),%rax
  604e98:	48 8b 4d f0          	mov    -0x10(%rbp),%rcx
  604e9c:	48 31 c8             	xor    %rcx,%rax
  604e9f:	48 89 45 e0          	mov    %rax,-0x20(%rbp)
  604ea3:	b8 05 00 00 00       	mov    $0x5,%eax
  604ea8:	49 89 c1             	mov    %rax,%r9
  604eab:	b8 05 00 00 00       	mov    $0x5,%eax
  604eb0:	49 89 c0             	mov    %rax,%r8
  604eb3:	b8 01 00 00 00       	mov    $0x1,%eax
  604eb8:	49 89 c3             	mov    %rax,%r11
  604ebb:	48 8b 45 e0          	mov    -0x20(%rbp),%rax
  604ebf:	49 89 c2             	mov    %rax,%r10
  604ec2:	48 8d 45 d8          	lea    -0x28(%rbp),%rax
  604ec6:	48 89 c6             	mov    %rax,%rsi
  604ec9:	48 8b 45 f8          	mov    -0x8(%rbp),%rax
  604ecd:	48 89 c7             	mov    %rax,%rdi
  604ed0:	4c 89 d2             	mov    %r10,%rdx
  604ed3:	4c 89 d9             	mov    %r11,%rcx
  604ed6:	b8 00 00 00 00       	mov    $0x0,%eax
  604edb:	e8 44 fc ff ff       	call   604b24 <__atomic_compare_exchange_8>
  604ee0:	0f b6 c0             	movzbl %al,%eax
  604ee3:	83 f8 00             	cmp    $0x0,%eax
  604ee6:	0f 84 a8 ff ff ff    	je     604e94 <__atomic_xor_fetch_8+0x34>
  604eec:	48 8b 45 e0          	mov    -0x20(%rbp),%rax
  604ef0:	c9                   	leave
  604ef1:	c3                   	ret

0000000000604ef2 <__atomic_nand_fetch_8>:
  604ef2:	55                   	push   %rbp
  604ef3:	48 89 e5             	mov    %rsp,%rbp
  604ef6:	48 81 ec 30 00 00 00 	sub    $0x30,%rsp
  604efd:	48 89 7d f8          	mov    %rdi,-0x8(%rbp)
  604f01:	48 89 75 f0          	mov    %rsi,-0x10(%rbp)
  604f05:	48 89 55 e8          	mov    %rdx,-0x18(%rbp)
  604f09:	b8 00 00 00 00       	mov    $0x0,%eax
  604f0e:	48 89 c6             	mov    %rax,%rsi
  604f11:	48 8b 45 f8          	mov    -0x8(%rbp),%rax
  604f15:	48 89 c7             	mov    %rax,%rdi
  604f18:	b8 00 00 00 00       	mov    $0x0,%eax
  604f1d:	e8 d9 fb ff ff       	call   604afb <__atomic_load_8>
  604f22:	48 89 45 d8          	mov    %rax,-0x28(%rbp)
  604f26:	48 8b 45 d8          	mov    -0x28(%rbp),%rax
  604f2a:	48 8b 4d f0          	mov    -0x10(%rbp),%rcx
  604f2e:	48 21 c8             	and    %rcx,%rax
  604f31:	48 83 f0 ff          	xor    $0xffffffffffffffff,%rax
  604f35:	48 89 45 e0          	mov    %rax,-0x20(%rbp)
  604f39:	b8 05 00 00 00       	mov    $0x5,%eax
  604f3e:	49 89 c1             	mov    %rax,%r9
  604f41:	b8 05 00 00 00       	mov    $0x5,%eax
  604f46:	49 89 c0             	mov    %rax,%r8
  604f49:	b8 01 00 00 00       	mov    $0x1,%eax
  604f4e:	49 89 c3             	mov    %rax,%r11
  604f51:	48 8b 45 e0          	mov    -0x20(%rbp),%rax
  604f55:	49 89 c2             	mov    %rax,%r10
  604f58:	48 8d 45 d8          	lea    -0x28(%rbp),%rax
  604f5c:	48 89 c6             	mov    %rax,%rsi
  604f5f:	48 8b 45 f8          	mov    -0x8(%rbp),%rax
  604f63:	48 89 c7             	mov    %rax,%rdi
  604f66:	4c 89 d2             	mov    %r10,%rdx
  604f69:	4c 89 d9             	mov    %r11,%rcx
  604f6c:	b8 00 00 00 00       	mov    $0x0,%eax
  604f71:	e8 ae fb ff ff       	call   604b24 <__atomic_compare_exchange_8>
  604f76:	0f b6 c0             	movzbl %al,%eax
  604f79:	83 f8 00             	cmp    $0x0,%eax
  604f7c:	0f 84 a4 ff ff ff    	je     604f26 <__atomic_nand_fetch_8+0x34>
  604f82:	48 8b 45 e0          	mov    -0x20(%rbp),%rax
  604f86:	c9                   	leave
  604f87:	c3                   	ret

0000000000604f88 <__atomic_fetch_add_8>:
  604f88:	55                   	push   %rbp
  604f89:	48 89 e5             	mov    %rsp,%rbp
  604f8c:	48 81 ec 30 00 00 00 	sub    $0x30,%rsp
  604f93:	48 89 7d f8          	mov    %rdi,-0x8(%rbp)
  604f97:	48 89 75 f0          	mov    %rsi,-0x10(%rbp)
  604f9b:	48 89 55 e8          	mov    %rdx,-0x18(%rbp)
  604f9f:	b8 00 00 00 00       	mov    $0x0,%eax
  604fa4:	48 89 c6             	mov    %rax,%rsi
  604fa7:	48 8b 45 f8          	mov    -0x8(%rbp),%rax
  604fab:	48 89 c7             	mov    %rax,%rdi
  604fae:	b8 00 00 00 00       	mov    $0x0,%eax
  604fb3:	e8 43 fb ff ff       	call   604afb <__atomic_load_8>
  604fb8:	48 89 45 d8          	mov    %rax,-0x28(%rbp)
  604fbc:	48 8b 45 d8          	mov    -0x28(%rbp),%rax
  604fc0:	48 8b 4d f0          	mov    -0x10(%rbp),%rcx
  604fc4:	48 01 c8             	add    %rcx,%rax
  604fc7:	48 89 45 e0          	mov    %rax,-0x20(%rbp)
  604fcb:	b8 05 00 00 00       	mov    $0x5,%eax
  604fd0:	49 89 c1             	mov    %rax,%r9
  604fd3:	b8 05 00 00 00       	mov    $0x5,%eax
  604fd8:	49 89 c0             	mov    %rax,%r8
  604fdb:	b8 01 00 00 00       	mov    $0x1,%eax
  604fe0:	49 89 c3             	mov    %rax,%r11
  604fe3:	48 8b 45 e0          	mov    -0x20(%rbp),%rax
  604fe7:	49 89 c2             	mov    %rax,%r10
  604fea:	48 8d 45 d8          	lea    -0x28(%rbp),%rax
  604fee:	48 89 c6             	mov    %rax,%rsi
  604ff1:	48 8b 45 f8          	mov    -0x8(%rbp),%rax
  604ff5:	48 89 c7             	mov    %rax,%rdi
  604ff8:	4c 89 d2             	mov    %r10,%rdx
  604ffb:	4c 89 d9             	mov    %r11,%rcx
  604ffe:	b8 00 00 00 00       	mov    $0x0,%eax
  605003:	e8 1c fb ff ff       	call   604b24 <__atomic_compare_exchange_8>
  605008:	0f b6 c0             	movzbl %al,%eax
  60500b:	83 f8 00             	cmp    $0x0,%eax
  60500e:	0f 84 a8 ff ff ff    	je     604fbc <__atomic_fetch_add_8+0x34>
  605014:	48 8b 45 d8          	mov    -0x28(%rbp),%rax
  605018:	c9                   	leave
  605019:	c3                   	ret

000000000060501a <__atomic_fetch_sub_8>:
  60501a:	55                   	push   %rbp
  60501b:	48 89 e5             	mov    %rsp,%rbp
  60501e:	48 81 ec 30 00 00 00 	sub    $0x30,%rsp
  605025:	48 89 7d f8          	mov    %rdi,-0x8(%rbp)
  605029:	48 89 75 f0          	mov    %rsi,-0x10(%rbp)
  60502d:	48 89 55 e8          	mov    %rdx,-0x18(%rbp)
  605031:	b8 00 00 00 00       	mov    $0x0,%eax
  605036:	48 89 c6             	mov    %rax,%rsi
  605039:	48 8b 45 f8          	mov    -0x8(%rbp),%rax
  60503d:	48 89 c7             	mov    %rax,%rdi
  605040:	b8 00 00 00 00       	mov    $0x0,%eax
  605045:	e8 b1 fa ff ff       	call   604afb <__atomic_load_8>
  60504a:	48 89 45 d8          	mov    %rax,-0x28(%rbp)
  60504e:	48 8b 45 d8          	mov    -0x28(%rbp),%rax
  605052:	48 8b 4d f0          	mov    -0x10(%rbp),%rcx
  605056:	48 29 c8             	sub    %rcx,%rax
  605059:	48 89 45 e0          	mov    %rax,-0x20(%rbp)
  60505d:	b8 05 00 00 00       	mov    $0x5,%eax
  605062:	49 89 c1             	mov    %rax,%r9
  605065:	b8 05 00 00 00       	mov    $0x5,%eax
  60506a:	49 89 c0             	mov    %rax,%r8
  60506d:	b8 01 00 00 00       	mov    $0x1,%eax
  605072:	49 89 c3             	mov    %rax,%r11
  605075:	48 8b 45 e0          	mov    -0x20(%rbp),%rax
  605079:	49 89 c2             	mov    %rax,%r10
  60507c:	48 8d 45 d8          	lea    -0x28(%rbp),%rax
  605080:	48 89 c6             	mov    %rax,%rsi
  605083:	48 8b 45 f8          	mov    -0x8(%rbp),%rax
  605087:	48 89 c7             	mov    %rax,%rdi
  60508a:	4c 89 d2             	mov    %r10,%rdx
  60508d:	4c 89 d9             	mov    %r11,%rcx
  605090:	b8 00 00 00 00       	mov    $0x0,%eax
  605095:	e8 8a fa ff ff       	call   604b24 <__atomic_compare_exchange_8>
  60509a:	0f b6 c0             	movzbl %al,%eax
  60509d:	83 f8 00             	cmp    $0x0,%eax
  6050a0:	0f 84 a8 ff ff ff    	je     60504e <__atomic_fetch_sub_8+0x34>
  6050a6:	48 8b 45 d8          	mov    -0x28(%rbp),%rax
  6050aa:	c9                   	leave
  6050ab:	c3                   	ret

00000000006050ac <__atomic_fetch_and_8>:
  6050ac:	55                   	push   %rbp
  6050ad:	48 89 e5             	mov    %rsp,%rbp
  6050b0:	48 81 ec 30 00 00 00 	sub    $0x30,%rsp
  6050b7:	48 89 7d f8          	mov    %rdi,-0x8(%rbp)
  6050bb:	48 89 75 f0          	mov    %rsi,-0x10(%rbp)
  6050bf:	48 89 55 e8          	mov    %rdx,-0x18(%rbp)
  6050c3:	b8 00 00 00 00       	mov    $0x0,%eax
  6050c8:	48 89 c6             	mov    %rax,%rsi
  6050cb:	48 8b 45 f8          	mov    -0x8(%rbp),%rax
  6050cf:	48 89 c7             	mov    %rax,%rdi
  6050d2:	b8 00 00 00 00       	mov    $0x0,%eax
  6050d7:	e8 1f fa ff ff       	call   604afb <__atomic_load_8>
  6050dc:	48 89 45 d8          	mov    %rax,-0x28(%rbp)
  6050e0:	48 8b 45 d8          	mov    -0x28(%rbp),%rax
  6050e4:	48 8b 4d f0          	mov    -0x10(%rbp),%rcx
  6050e8:	48 21 c8             	and    %rcx,%rax
  6050eb:	48 89 45 e0          	mov    %rax,-0x20(%rbp)
  6050ef:	b8 05 00 00 00       	mov    $0x5,%eax
  6050f4:	49 89 c1             	mov    %rax,%r9
  6050f7:	b8 05 00 00 00       	mov    $0x5,%eax
  6050fc:	49 89 c0             	mov    %rax,%r8
  6050ff:	b8 01 00 00 00       	mov    $0x1,%eax
  605104:	49 89 c3             	mov    %rax,%r11
  605107:	48 8b 45 e0          	mov    -0x20(%rbp),%rax
  60510b:	49 89 c2             	mov    %rax,%r10
  60510e:	48 8d 45 d8          	lea    -0x28(%rbp),%rax
  605112:	48 89 c6             	mov    %rax,%rsi
  605115:	48 8b 45 f8          	mov    -0x8(%rbp),%rax
  605119:	48 89 c7             	mov    %rax,%rdi
  60511c:	4c 89 d2             	mov    %r10,%rdx
  60511f:	4c 89 d9             	mov    %r11,%rcx
  605122:	b8 00 00 00 00       	mov    $0x0,%eax
  605127:	e8 f8 f9 ff ff       	call   604b24 <__atomic_compare_exchange_8>
  60512c:	0f b6 c0             	movzbl %al,%eax
  60512f:	83 f8 00             	cmp    $0x0,%eax
  605132:	0f 84 a8 ff ff ff    	je     6050e0 <__atomic_fetch_and_8+0x34>
  605138:	48 8b 45 d8          	mov    -0x28(%rbp),%rax
  60513c:	c9                   	leave
  60513d:	c3                   	ret

000000000060513e <__atomic_fetch_or_8>:
  60513e:	55                   	push   %rbp
  60513f:	48 89 e5             	mov    %rsp,%rbp
  605142:	48 81 ec 30 00 00 00 	sub    $0x30,%rsp
  605149:	48 89 7d f8          	mov    %rdi,-0x8(%rbp)
  60514d:	48 89 75 f0          	mov    %rsi,-0x10(%rbp)
  605151:	48 89 55 e8          	mov    %rdx,-0x18(%rbp)
  605155:	b8 00 00 00 00       	mov    $0x0,%eax
  60515a:	48 89 c6             	mov    %rax,%rsi
  60515d:	48 8b 45 f8          	mov    -0x8(%rbp),%rax
  605161:	48 89 c7             	mov    %rax,%rdi
  605164:	b8 00 00 00 00       	mov    $0x0,%eax
  605169:	e8 8d f9 ff ff       	call   604afb <__atomic_load_8>
  60516e:	48 89 45 d8          	mov    %rax,-0x28(%rbp)
  605172:	48 8b 45 d8          	mov    -0x28(%rbp),%rax
  605176:	48 8b 4d f0          	mov    -0x10(%rbp),%rcx
  60517a:	48 09 c8             	or     %rcx,%rax
  60517d:	48 89 45 e0          	mov    %rax,-0x20(%rbp)
  605181:	b8 05 00 00 00       	mov    $0x5,%eax
  605186:	49 89 c1             	mov    %rax,%r9
  605189:	b8 05 00 00 00       	mov    $0x5,%eax
  60518e:	49 89 c0             	mov    %rax,%r8
  605191:	b8 01 00 00 00       	mov    $0x1,%eax
  605196:	49 89 c3             	mov    %rax,%r11
  605199:	48 8b 45 e0          	mov    -0x20(%rbp),%rax
  60519d:	49 89 c2             	mov    %rax,%r10
  6051a0:	48 8d 45 d8          	lea    -0x28(%rbp),%rax
  6051a4:	48 89 c6             	mov    %rax,%rsi
  6051a7:	48 8b 45 f8          	mov    -0x8(%rbp),%rax
  6051ab:	48 89 c7             	mov    %rax,%rdi
  6051ae:	4c 89 d2             	mov    %r10,%rdx
  6051b1:	4c 89 d9             	mov    %r11,%rcx
  6051b4:	b8 00 00 00 00       	mov    $0x0,%eax
  6051b9:	e8 66 f9 ff ff       	call   604b24 <__atomic_compare_exchange_8>
  6051be:	0f b6 c0             	movzbl %al,%eax
  6051c1:	83 f8 00             	cmp    $0x0,%eax
  6051c4:	0f 84 a8 ff ff ff    	je     605172 <__atomic_fetch_or_8+0x34>
  6051ca:	48 8b 45 d8          	mov    -0x28(%rbp),%rax
  6051ce:	c9                   	leave
  6051cf:	c3                   	ret

00000000006051d0 <__atomic_fetch_xor_8>:
  6051d0:	55                   	push   %rbp
  6051d1:	48 89 e5             	mov    %rsp,%rbp
  6051d4:	48 81 ec 30 00 00 00 	sub    $0x30,%rsp
  6051db:	48 89 7d f8          	mov    %rdi,-0x8(%rbp)
  6051df:	48 89 75 f0          	mov    %rsi,-0x10(%rbp)
  6051e3:	48 89 55 e8          	mov    %rdx,-0x18(%rbp)
  6051e7:	b8 00 00 00 00       	mov    $0x0,%eax
  6051ec:	48 89 c6             	mov    %rax,%rsi
  6051ef:	48 8b 45 f8          	mov    -0x8(%rbp),%rax
  6051f3:	48 89 c7             	mov    %rax,%rdi
  6051f6:	b8 00 00 00 00       	mov    $0x0,%eax
  6051fb:	e8 fb f8 ff ff       	call   604afb <__atomic_load_8>
  605200:	48 89 45 d8          	mov    %rax,-0x28(%rbp)
  605204:	48 8b 45 d8          	mov    -0x28(%rbp),%rax
  605208:	48 8b 4d f0          	mov    -0x10(%rbp),%rcx
  60520c:	48 31 c8             	xor    %rcx,%rax
  60520f:	48 89 45 e0          	mov    %rax,-0x20(%rbp)
  605213:	b8 05 00 00 00       	mov    $0x5,%eax
  605218:	49 89 c1             	mov    %rax,%r9
  60521b:	b8 05 00 00 00       	mov    $0x5,%eax
  605220:	49 89 c0             	mov    %rax,%r8
  605223:	b8 01 00 00 00       	mov    $0x1,%eax
  605228:	49 89 c3             	mov    %rax,%r11
  60522b:	48 8b 45 e0          	mov    -0x20(%rbp),%rax
  60522f:	49 89 c2             	mov    %rax,%r10
  605232:	48 8d 45 d8          	lea    -0x28(%rbp),%rax
  605236:	48 89 c6             	mov    %rax,%rsi
  605239:	48 8b 45 f8          	mov    -0x8(%rbp),%rax
  60523d:	48 89 c7             	mov    %rax,%rdi
  605240:	4c 89 d2             	mov    %r10,%rdx
  605243:	4c 89 d9             	mov    %r11,%rcx
  605246:	b8 00 00 00 00       	mov    $0x0,%eax
  60524b:	e8 d4 f8 ff ff       	call   604b24 <__atomic_compare_exchange_8>
  605250:	0f b6 c0             	movzbl %al,%eax
  605253:	83 f8 00             	cmp    $0x0,%eax
  605256:	0f 84 a8 ff ff ff    	je     605204 <__atomic_fetch_xor_8+0x34>
  60525c:	48 8b 45 d8          	mov    -0x28(%rbp),%rax
  605260:	c9                   	leave
  605261:	c3                   	ret

0000000000605262 <__atomic_fetch_nand_8>:
  605262:	55                   	push   %rbp
  605263:	48 89 e5             	mov    %rsp,%rbp
  605266:	48 81 ec 30 00 00 00 	sub    $0x30,%rsp
  60526d:	48 89 7d f8          	mov    %rdi,-0x8(%rbp)
  605271:	48 89 75 f0          	mov    %rsi,-0x10(%rbp)
  605275:	48 89 55 e8          	mov    %rdx,-0x18(%rbp)
  605279:	b8 00 00 00 00       	mov    $0x0,%eax
  60527e:	48 89 c6             	mov    %rax,%rsi
  605281:	48 8b 45 f8          	mov    -0x8(%rbp),%rax
  605285:	48 89 c7             	mov    %rax,%rdi
  605288:	b8 00 00 00 00       	mov    $0x0,%eax
  60528d:	e8 69 f8 ff ff       	call   604afb <__atomic_load_8>
  605292:	48 89 45 d8          	mov    %rax,-0x28(%rbp)
  605296:	48 8b 45 d8          	mov    -0x28(%rbp),%rax
  60529a:	48 8b 4d f0          	mov    -0x10(%rbp),%rcx
  60529e:	48 21 c8             	and    %rcx,%rax
  6052a1:	48 83 f0 ff          	xor    $0xffffffffffffffff,%rax
  6052a5:	48 89 45 e0          	mov    %rax,-0x20(%rbp)
  6052a9:	b8 05 00 00 00       	mov    $0x5,%eax
  6052ae:	49 89 c1             	mov    %rax,%r9
  6052b1:	b8 05 00 00 00       	mov    $0x5,%eax
  6052b6:	49 89 c0             	mov    %rax,%r8
  6052b9:	b8 01 00 00 00       	mov    $0x1,%eax
  6052be:	49 89 c3             	mov    %rax,%r11
  6052c1:	48 8b 45 e0          	mov    -0x20(%rbp),%rax
  6052c5:	49 89 c2             	mov    %rax,%r10
  6052c8:	48 8d 45 d8          	lea    -0x28(%rbp),%rax
